(lp0
F-0.8800901715803242
aF0.20692904540300358
aF-2.2351741790771484e-08
aF0.77453745643193
aF-1.0648766082595147
aF0.5057069425521953
aF-2.2351741790771484e-08
aF0.49209457402954887
aF0.0
aF0.0
aF0.04380679176003315
aF0.014202273530520724
aF0.04542650147779307
aF-0.010131370058429037
aF0.045426507753801845
aF-0.003189599675848131
aF0.04678396345466872
aF-0.016652924853662498
aF0.07404655840124937
aF0.02230498418950265
aF0.07702372158795653
aF-0.02475562876412674
aF0.07673311826271059
aF-0.014727532478477471
aF0.07673311266186691
aF0.0014064711605049109
aF0.10756655999328742
aF-0.0019086503956288249
aF0.13802170327361277
aF-0.010131287639016079
aF0.1380217212984044
aF-0.0031896028946704056
aF0.13324679740761133
aF0.03816767957058649
aF0.13622393249020937
aF-0.04061843612961414
aF0.16932821167012854
aF-0.014727515148064163
aF0.16646371258735965
aF-0.048721080716561345
aF0.16348655639328702
aF0.046270420300865714
aF0.16932821909422732
aF0.0014064727031823342
aF0.2327257298992899
aF-0.05999999865889549
aF0.23256081007868193
aF-0.03000000044703484
aF0.23256081016845623
aF-0.039999999850988385
aF0.23256081019045452
aF-0.04999999925494194
aF0.23256081013999302
aF-0.010000000149011612
aF0.23256081004294574
aF-0.020000001043081285
aF0.2004920677278417
aF0.0
aF-0.6640943276429325
aF0.40803009223819425
aF-2.2351741790771484e-08
aF0.7886686433133482
aF0.0
aF0.0
aF0.052820993240455694
aF0.003829208062661768
aF0.035564843172540744
aF-0.012659462926264329
aF0.005348279460968105
aF-0.0006615306613713314
aF0.013251786829131005
aF-0.006279856891860108
aF0.035333970214265986
aF0.011931947969218652
aF0.03831113352951195
aF-0.014382593054154727
aF0.05271766761198618
aF-0.017255600078687237
aF0.03665488620624245
aF0.003934527024545198
aF0.0674883327878756
aF-0.0019086511542353041
aF0.09794347178042483
aF-0.01265938119996216
aF0.09794349300557055
aF-0.00066153388019279
aF0.09453421017354244
aF0.027794645317589337
aF0.0975113539565561
aF-0.03024536916317252
aF0.12924998314611907
aF-0.017255586870144723
aF0.12775112517067483
aF-0.038348042390086254
aF0.12477397047797041
aF0.03589738640664266
aF0.1292499910325691
aF0.003934528567222617
aF0.22286443582074345
aF-0.05999999865889549
aF0.1924825820222396
aF-0.03000000044703484
aF0.192482582106798
aF-0.039999999850988385
aF0.1924825821287963
aF-0.04999999925494194
aF0.19248258208615868
aF-0.010000000149011612
aF0.1924825819917194
aF-0.020000001043081285
aF0.16041383966618347
aF0.0
aF-0.848880764322123
aF0.7068079893873858
aF-2.2351741790771484e-08
aF0.49209457402954887
aF0.0
aF0.0
aF0.022943203552374336
aF0.008611859137696125
aF0.023826917535953056
aF-0.004926526663254039
aF0.023826923836016388
aF-0.008394484975710142
aF0.025920375793126352
aF-0.011062508184747893
aF0.053182965970007004
aF0.016714585559237775
aF0.05616012869099035
aF-0.01916522983366091
aF0.055133530562387095
aF-0.00952264473652048
aF0.055133524961562035
aF-0.003798392418552059
aF0.085966973836674
aF-0.0019086488337791475
aF0.11642212594490964
aF-0.004926442816882134
aF0.11642213738061914
aF-0.008394488194531981
aF0.1123832018948269
aF0.032577281068550255
aF0.11536034183567
aF-0.03502801999713498
aF0.14772862822829766
aF-0.00952262962753017
aF0.1456001200362605
aF-0.043130680951195086
aF0.14262295816540452
aF0.040680021060173835
aF0.14772863470048814
aF-0.003798390875874636
aF0.2527853160820237
aF-0.05999999865889549
aF0.21096122567420397
aF-0.03000000044703484
aF0.21096122577471704
aF-0.039999999850988385
aF0.22174443767595803
aF-0.04999999925494194
aF0.21096122573014567
aF-0.010000000149011612
aF0.210961225627729
aF-0.020000001043081285
aF0.17889248333410254
aF0.0
aF-0.4426751682973276
aF0.4927703440509359
aF0.029554756948623383
aF0.8142167467795042
aF0.020095941328528898
aF0.0029554779300365176
aF0.04434696802817349
aF0.0009531985106363225
aF0.0266147076166598
aF-0.007611477470380624
aF0.0
aF0.0
aF0.004777766429144757
aF0.002305697171638785
aF0.022535565279271676
aF0.009055955153440239
aF0.016158752952283258
aF-0.0057970563637832415
aF0.04376745349122875
aF-0.012207584824795887
aF0.014512969008565905
aF0.004596067067179016
aF0.04534641611047263
aF0.001046827433935695
aF0.07580156193327199
aF-0.007611395198982706
aF0.07580157709548534
aF-3.218821009343822e-09
aF0.07391170024687026
aF0.024918653110989324
aF0.07535897474618612
aF-0.021659815629910324
aF0.10710806796484108
aF-0.012207573893452804
aF0.10559874477137818
aF-0.029762504615943573
aF0.1041514594072065
aF0.033021393888787255
aF0.10710807509800861
aF0.004596068609856438
aF0.23128670719659514
aF-0.05704452072885898
aF0.17034066608315399
aF-0.027044522516998317
aF0.1703406661722375
aF-0.037044521920951874
aF0.20034067314231307
aF-0.04704452132490543
aF0.1703406661448105
aF-0.007044522218975094
aF0.17034066604810866
aF-0.017044523113044763
aF0.13827192373162298
aF0.0029554779300365176
aF-0.6265803551108695
aF0.6766755307466316
aF0.017054204120005297
aF0.521649353329914
aF0.001705422647174709
aF0.0017054226471747088
aF0.025956449384827242
aF0.004505580828305168
aF0.009174299741976708
aF-0.0040591183398740035
aF0.01629562842322576
aF-0.00596728557821342
aF0.004006415589060953
aF-0.0036616061711180798
aF0.032151796443935794
aF0.012608323805968285
aF0.03424616513501705
aF-0.0117643453735452
aF0.03290349006157569
aF-0.00865522003943351
aF0.03290348461101994
aF-0.0013711970663954163
aF0.06373693317969326
aF-0.00020322642062794335
aF0.09419208575996826
aF-0.004059034739750309
aF0.09419209628657163
aF-0.005967288797034811
aF0.09135203248817389
aF0.028471020336487535
aF0.09344638195295152
aF-0.027627118524249174
aF0.1254985873677541
aF-0.008655207216705875
aF0.12368615673433371
aF-0.035729795121612375
aF0.12159178916557532
aF0.03657376043879011
aF0.1254985937793628
aF-0.0013711955237179932
aF0.24972014187519603
aF-0.058294576011720785
aF0.1887311847546877
aF-0.02829457779986013
aF0.1887311848535917
aF-0.03829457720381368
aF0.2187311918118826
aF-0.04829457660776723
aF0.18873118481143392
aF-0.008294577501836903
aF0.18873118470982184
aF-0.018294578395906574
aF0.15666244241297717
aF0.0017054226471747088
aF-0.21988915701128964
aF0.452218973871146
aF0.029874813231473955
aF0.8141780464805166
aF0.0423745424571327
aF0.0029874835583215743
aF0.04840210501380821
aF-0.004782044255811798
aF0.03052346451695681
aF-0.008630126748268794
aF0.010710689639350514
aF0.001080464573374755
aF0.011047028617143403
aF0.008102771475898014
aF0.026590702272702334
aF0.0033207286513309577
aF0.0
aF0.0
aF0.04767613082162555
aF-0.013226218402781332
aF0.005676525900761796
aF0.005676525900761796
aF0.02306781533734678
aF0.0010788327472788586
aF0.053522959413725604
aF-0.008630044765232672
aF0.053522975869000206
aF0.0010804613545541972
aF0.052400512161589356
aF0.019183427652309144
aF0.053831224106659095
aF-0.015862741878737163
aF0.084829466648102
aF-0.013226209762695122
aF0.08407098937372158
aF-0.023965446829376142
aF0.0826402718694169
aF0.027286168579055345
aF0.08482947396940481
aF0.005676527443439217
aF0.22717953122704815
aF-0.05701251510057392
aF0.14806206495671564
aF-0.027012516888713263
aF0.16628552913998243
aF-0.03701251629266681
aF0.19628553612433405
aF-0.04701251569662036
aF0.14806206501945487
aF-0.007012516590690038
aF0.14806206492383575
aF-0.01701251748475971
aF0.11599332260301917
aF0.0029874835583215743
aF-0.4036241775560915
aF0.6176180726657108
aF-0.004779337131880348
aF0.5219694096127646
aF0.02400104040265251
aF-0.00047793147801385573
aF0.0318621951596882
aF-0.003373938549201864
aF0.015443983565473354
aF-0.007696612714786789
aF0.011156206862189912
aF-0.006547720393288231
aF0.0
aF0.0
aF0.010050792412475475
aF0.004728820272026651
aF0.013275351425564602
aF-0.008102757610355997
aF0.03259672393924918
aF-0.012292700220973396
aF0.010607867730391728
aF-0.0019516403971139038
aF0.04144131594191984
aF-0.002386581004485779
aF0.07189646363196824
aF-0.007696529492219303
aF0.07189647852140117
aF-0.006547723612109166
aF0.06925102914131825
aF0.020591517890808
aF0.07247557530618366
aF-0.023965512921382277
aF0.10320296907256717
aF-0.012292689691252707
aF0.10271534351237091
aF-0.032068205857195525
aF0.0994907866160648
aF0.0286942582100328
aF0.10320297602388499
aF-0.0019516388544364807
aF0.2437623224098863
aF-0.06047793013690935
aF0.16643556700236356
aF-0.030477931925048694
aF0.18282543903121262
aF-0.040477931329002244
aF0.21282544600379055
aF-0.0504779307329558
aF0.1664355670606866
aF-0.010477931627025467
aF0.16643556696065134
aF-0.02047793252109514
aF0.13436682465749936
aF-0.00047793147801385573
aF-0.0013676572087121966
aF0.4883104404006055
aF-0.006216653872998191
aF0.7813628623957155
aF0.06422669243739045
aF-0.00062166315212564
aF0.04479295832772035
aF-0.013923994439299035
aF0.03256285732975029
aF-0.01118220244872008
aF0.03256283931916174
aF-0.0033398193047818932
aF0.031220455149578684
aF0.010272390118002529
aF0.02298155559460266
aF-0.005821206291016425
aF0.002169600150027644
aF0.002169600150027644
aF0.045124080919383504
aF-0.015778268334788244
aF0.0012562438985269343
aF0.0012562438985269343
aF0.0025303136828642584
aF-0.0025303136828642584
aF0.031670806903195146
aF-0.011182120140975688
aF0.031670826189189094
aF-0.0033398225236020065
aF0.04479295778016028
aF0.010041493415604672
aF0.03365779733916997
aF-0.013693123803358338
aF0.06297731640862762
aF-0.015778261942100257
aF0.06389755616938492
aF-0.021795845397491263
aF0.060598600390953654
aF0.01814423420978535
aF0.06297732398914706
aF0.0012562454412043556
aF0.23073761433883638
aF-0.06062166181102113
aF0.13989466701826986
aF-0.030621663599160475
aF0.16989467577892556
aF-0.040621663003114025
aF0.19989468277728
aF-0.05062166240706758
aF0.12620991503630621
aF-0.010621663301137252
aF0.12620991493972344
aF-0.02062166419520692
aF0.09414117262276143
aF-0.00062166315212564
aF-0.18433379908195352
aF0.5446140606580091
aF-0.004135780623565659
aF0.48587794250829247
aF0.04593007825006631
aF-0.00041357582718238683
aF0.039162596328634385
aF-0.008987459476036882
aF0.022479051583924964
aF-0.00952394774468726
aF0.014266225010979197
aF-0.004596070599767684
aF0.013601148295870663
aF0.005737847739915319
aF0.017351193589092186
aF-0.0008846846392418653
aF0.0023649274757804677
aF-0.0023649274757804677
aF0.03963171252281012
aF-0.014120023815160646
aF0.0
aF0.0
aF0.019512278734467488
aF-0.0023222259206393875
aF0.049967423287539885
aF-0.00952386504137323
aF0.04996744049737169
aF-0.004596073818588172
aF0.04808586647938727
aF0.014978014128487555
aF0.051277104319804014
aF-0.018227665725656178
aF0.08127393088725883
aF-0.014120015540745762
aF0.08151686748931637
aF-0.026330374247674603
aF0.07832562493977356
aF0.02308075471586112
aF0.0812739381764712
aF1.5426774214694466e-09
aF0.23641070780744822
aF-0.060413574486077884
aF0.14552502795168862
aF-0.030413576274217223
aF0.17552503781639034
aF-0.04041357567817078
aF0.20552504480302036
aF-0.05041357508212433
aF0.1445065292191204
aF-0.010413575976193998
aF0.14450652912103434
aF-0.02041357687026367
aF0.11243778681008558
aF-0.00041357582718238683
aF0.21709819768354982
aF0.43299712352683606
aF0.019086487251548812
aF0.8072751509626617
aF0.08607327792661663
aF0.0019086509603290602
aF0.05496669251072068
aF-0.01713424297976908
aF0.054409442099338685
aF-0.010169736365820612
aF0.05440942509005229
aF0.0005358935617524072
aF0.052977524082784014
aF0.018370829541628064
aF0.02851288725864539
aF-0.00903143839389697
aF0.02273768590228161
aF0.010268022544060224
aF0.049812041601378476
aF-0.014765789550278706
aF0.02310282878156005
aF0.005131950131532031
aF0.0
aF0.0
aF0.032659208310026534
aF-0.010169654498685727
aF0.009824240418298432
aF0.0005358903429327385
aF0.05032428930063757
aF0.006831262419902912
aF0.011900728323424129
aF-0.005594684905464121
aF0.04981202583494422
aF-0.014765785404416677
aF0.04214048411874795
aF-0.013697421613031472
aF0.040151319680718695
aF0.014934003417253372
aF0.04113073849992087
aF0.005131951674209452
aF0.2251552570570141
aF-0.058091347698566435
aF0.1343633366351505
aF-0.028091349486705774
aF0.16436334407754932
aF-0.03809134889065933
aF0.19436335108990307
aF-0.04809134829461288
aF0.1043633295515106
aF-0.008091349188682552
aF0.1043633294564047
aF-0.01809135008275222
aF0.07229458713353523
aF0.0019086509603290602
aF0.03420448125662864
aF0.48005609889506745
aF0.01908648359671724
aF0.5111810836328395
aF0.06778390628392453
aF0.001908650594845903
aF0.04561839247409248
aF-0.012400579730610883
aF0.03612006880338818
aF-0.00895174732391658
aF0.03612005333598388
aF-0.0006820855854100869
aF0.035311355495483185
aF0.013637164457447597
aF0.023806989741982695
aF-0.004297788491630506
aF0.0055343721742446405
aF0.0055343721742446405
aF0.045266494368442975
aF-0.013547811738113058
aF0.004813457598287037
aF0.003913977267585574
aF0.0
aF0.0
aF0.02811359542955877
aF-0.008951665122853638
aF0.028113612172366888
aF-0.0006820888042301271
aF0.045618391991145
aF0.011564911415286757
aF0.02956689703243484
aF-0.010328349535419844
aF0.059420102824526415
aF-0.013547805711268995
aF0.059806656909767504
aF-0.018431073182500122
aF0.057817491533894885
aF0.019667652239786244
aF0.05942011014261298
aF0.003913978810262996
aF0.229903871638837
aF-0.05809134806404959
aF0.1390692330800844
aF-0.028091349852188932
aF0.16906924162609227
aF-0.038091349256142486
aF0.1990692486267262
aF-0.04809134866009604
aF0.12265270119043328
aF-0.00809134955416571
aF0.12265270109407092
aF-0.01809135044823538
aF0.09058395877622735
aF0.001908650594845903
aF0.3007795459092735
aF0.3974428234027
aF0.019086490012870695
aF0.586431812105904
aF0.094441412749189
aF0.0019086512364612487
aF0.06304968630344249
aF-0.019300087226552694
aF0.06277757817099483
aF-0.011089954245933025
aF0.06277755999677241
aF0.0014561087303977766
aF0.06106051788256226
aF0.020536674786897607
aF0.03280985459490247
aF-0.011197276533932243
aF0.030820681671387795
aF0.012433861076624302
aF0.05324632272970351
aF-0.01568600399055124
aF0.031470963257029166
aF0.006052160833294136
aF0.0
aF0.0
aF0.03609351990314629
aF-0.01108987263108723
aF0.0014561055115782794
aF0.0014561055115782794
aF0.05387971920903815
aF0.004665424746310462
aF0.014310520540238257
aF-0.003428839868020952
aF0.0532463102435788
aF-0.015686000705315346
aF0.03405748823583756
aF-0.01153158249978765
aF0.032068324641725196
aF0.01276816587425425
aF0.03276260367734849
aF0.006052162375971557
aF0.2215802860782518
aF-0.05809134742243424
aF0.1308079071223208
aF-0.028091349210573588
aF0.1608079140597734
aF-0.038091348614527135
aF0.19080792107748945
aF-0.04809134801848069
aF0.09599519473178611
aF-0.008091348912550363
aF0.10080789994357502
aF-0.018091349806620034
aF0.06392645231096288
aF0.0019086512364612487
aF0.11759874454210799
aF0.4826821441080565
aF0.019086483392765648
aF0.5111810863941614
aF0.07612333261247245
aF0.001908650574450744
aF0.04535578794068167
aF-0.01455899391815629
aF0.044459495039673114
aF-0.008883788203197783
aF0.044459479658316634
aF-0.0007500523363544394
aF0.043366619469621295
aF0.01579557920882809
aF0.023544385211491207
aF-0.0064561965933780064
aF0.013126778914758132
aF0.00769278018243475
aF0.04501283790274998
aF-0.013479844580346938
aF0.013152883952472019
aF0.003846010385946321
aF0.0
aF0.0
aF0.027859968161551802
aF-0.00888370598350466
aF0.019774185850034137
aF-0.0007500555551743103
aF0.0453557873661899
aF0.009406503638591095
aF0.021511633002800512
aF-0.008169934991152756
aF0.05108067650840888
aF-0.013479839411176473
aF0.051751391293232564
aF-0.016272664681899487
aF0.04976222563256624
aF0.017509244453445198
aF0.051080683814065046
aF0.003846011928623742
aF0.23014699184590762
aF-0.05809134808444475
aF0.13933183809925334
aF-0.02809134987258409
aF0.1693318461420473
aF-0.038091349276537644
aF0.19933185314802512
aF-0.0480913486804912
aF0.114313274861675
aF-0.008091349574560867
aF0.11431327476524251
aF-0.018091350468630536
aF0.08224453244767942
aF0.001908650574450744
aF0.32159404534640007
aF0.5137662193337296
aF0.03592071639975632
aF1.178362092807455
aF0.09652286269290167
aF0.0035920738751498106
aF0.06462450919495052
aF-0.018212748296245262
aF0.06485902225642501
aF-0.006453231918498799
aF0.06485900976547368
aF7.149421604478528e-05
aF0.06350674922380872
aF0.02270145792898434
aF0.03438467829741765
aF-0.010109935755484847
aF0.033266911588392824
aF0.01459864273756142
aF0.04157464434075529
aF-0.011049266195587088
aF0.033552414292326894
aF0.004667559930512568
aF0.0018086511778967645
aF0.0016834235421132845
aF0.02442184718754229
aF-0.006453149510255868
aF7.1490997225327e-05
aF7.1490997225327e-05
aF0.04224737965968459
aF0.005752765199135943
aF0.00267818142351671
aF-0.0012640567664253706
aF0.04157463267056016
aF-0.011049263124419256
aF0.03161125906229214
aF-0.009366801005120688
aF0.030493498454263412
aF0.01385550589981696
aF0.03068115373363584
aF0.0046675614731899896
aF0.23320773098391506
aF-0.056407924783745685
aF0.14244024683968787
aF-0.026407926571885024
aF0.1724402536515426
aF-0.03640792597583858
aF0.20244026067059243
aF-0.04640792537979213
aF0.09391374477875598
aF-0.006407926273861801
aF0.11244023966094206
aF-0.01640792716793147
aF0.06184500236725021
aF0.0035920738751498106
aF0.1394703216244876
aF0.4615558346272173
aF0.01908648503353879
aF0.528015312781047
aF0.07831049032071041
aF0.001908650738528058
aF0.04746841888558904
aF-0.015125074926261865
aF0.046646653490116416
aF-0.00943057764917453
aF0.04664663741655506
aF-0.00020326206677382508
aF0.04547925047184156
aF0.016361660611987208
aF0.02565701615716422
aF-0.007022276005378578
aF0.015239410484037586
aF0.008258859847750714
aF0.04705348237872433
aF-0.014026634560351001
aF0.015340041454461785
aF0.004392798144533339
aF0.0
aF0.0
aF0.029900620961518347
aF-0.00943049557938997
aF0.01758702809179569
aF-0.0002032652855936533
aF0.047468418287088206
aF0.008840424391968933
aF0.019399001986025427
aF-0.007603853642312674
aF0.048893518700169954
aF-0.014026629616120154
aF0.049638759611732725
aF-0.01570658483798644
aF0.04764959452169108
aF0.016943165284421302
aF0.04889352610582709
aF0.00439279968721076
aF0.22802925675572752
aF-0.05809134792036744
aF0.13721920728174436
aF-0.02809134970850678
aF0.16721921519256183
aF-0.03809134911246033
aF0.19721922219994117
aF-0.04809134851641388
aF0.11212611715512925
aF-0.008091349410483553
aF0.11212611705926084
aF-0.018091350304553225
aF0.08005737473944145
aF0.001908650738528058
aF0.5380056140890714
aF0.4120895913113948
aF0.007936358487037082
aF0.7982650701665508
aF0.11816401956716881
aF0.0007936380838778872
aF0.08625254432077203
aF-0.026517002839862358
aF0.08650018564782365
aF-0.011787911245373468
aF0.08650016671365632
aF3.2188190158064586e-09
aF0.08368619892169138
aF0.025599553008474295
aF0.05601271633344119
aF-0.018414175053410434
aF0.053446368683813035
aF0.017496719864759237
aF0.055193570967491105
aF-0.016383936896608532
aF0.0551935702471671
aF0.004596055425520428
aF0.023449807259889415
aF-0.001115013038829352
aF0.03496741964867433
aF-0.011787829505408071
aF0.0
aF0.0
aF0.05241504207719139
aF-0.0025514728868656256
aF0.012845848790000095
aF0.001634037756974078
aF0.05212013772210258
aF-0.0163839360511392
aF0.011431801771990343
aF-0.006468722309340383
aF0.03060364709445192
aF0.005551268187280381
aF0.009039996859368704
aF0.004596056968197848
aF0.22298953518844175
aF-0.0592063605750176
aF0.13227258532944772
aF-0.02920636236315695
aF0.16227259083544152
aF-0.039206361767110495
aF0.19227259786835893
aF-0.04920636117106405
aF0.07227258791263311
aF-0.009206362065133726
aF0.10227257815070191
aF-0.019206362959203395
aF0.04020384549298307
aF0.0007936380838778872
aF0.35452184851587
aF0.5294840099391329
aF0.05163850037810095
aF1.1743369351931712
aF0.09981564300984866
aF0.005163852272984274
aF0.06739828130701732
aF-0.01754676646494616
aF0.06815180036704592
aF-0.0045282081043458815
aF0.0681517901388649
aF0.0011829085530090928
aF0.06709413819388288
aF0.025071917862423736
aF0.037158452088971894
aF-0.009443951213893605
aF0.03685429993174584
aF0.016969100328202164
aF0.03964961561060791
aF-0.009124237940169883
aF0.0368451947216049
aF0.0057789763607836026
aF0.0051014316173183345
aF0.003255202062019839
aF0.02249683132943548
aF-0.004528125614458707
aF0.0011829053341896997
aF0.0011829053341896997
aF0.040675600623219975
aF0.006418749832051263
aF0.0011064030956960272
aF0.0011064030956960272
aF0.03964960523118316
aF-0.009124235207650145
aF0.028023870787283148
aF-0.006996343278503666
aF0.027719724240600464
aF0.014521490474999996
aF0.027388373416688847
aF0.005778977903461025
aF0.23477181275478132
aF-0.054836146385911215
aF0.14401202609680966
aF-0.024836148174050564
aF0.17401203270997292
aF-0.03483614757800411
aF0.20401203973113277
aF-0.04483614698195766
aF0.09062096446054999
aF-0.004836147876027338
aF0.11401201891806387
aF-0.014836148770097009
aF0.058552222050303214
aF0.005163852272984274
aF0.7604017635238352
aF0.32243406478045017
aF0.015314462499349452
aF0.8002170612864821
aF0.14040363451064516
aF0.0015314484851091245
aF0.10754339262466055
aF-0.03156040039318969
aF0.10873980296458656
aF-0.013395710785953304
aF0.10873978191328144
aF0.003033133887614652
aF0.10535896777027988
aF0.03206829148443066
aF0.07730357015996764
aF-0.023457556232836477
aF0.07511914214854758
aF0.02396544065362953
aF0.07743318505498983
aF-0.01799172694909587
aF0.07743318429607009
aF0.007629174996320929
aF0.045689421504760915
aF-0.00037720333390704947
aF0.0434365992297684
aF-0.013395629696201367
aF0.016144580075499328
aF0.00303313066879609
aF0.06138059448436863
aF-0.007594852836474408
aF0.0218114062027621
aF0.008102775685509534
aF0.0605892443627692
aF-0.017991728390873842
aF0.0
aF0.0
aF0.03956919918739754
aF0.000507888566982386
aF0.017835945150850345
aF0.007629176538998349
aF0.21397204806966172
aF-0.05846855017378637
aF0.12330703400407496
aF-0.02846855196192571
aF0.1533070381680959
aF-0.03846855136587926
aF0.1833070452152645
aF-0.048468550769832815
aF0.06330703592339951
aF-0.008468551663902486
aF0.09330702682532917
aF-0.018468552557972157
aF0.017964230549506698
aF0.0015314484851091245
aF0.5765768931497639
aF0.49077812099017515
aF0.029020920535802616
aF1.1817150392054836
aF0.12202114747323806
aF0.0029020942887544405
aF0.08943253182474577
aF-0.025478694961222192
aF0.09035730857049039
aF-0.007714698842606729
aF0.09035729455910893
aF3.218818939817174e-09
aF0.08795760966408396
aF0.02863446865698379
aF0.059192705572566805
aF-0.017375863947696604
aF0.05771777820944877
aF0.020531632742063974
aF0.0590506996969263
aF-0.012310712078375727
aF0.05905069886628806
aF0.004596064802298117
aF0.027306935779107516
aF0.0009934437771810336
aF0.026820996256554545
aF-0.007714616584374808
aF0.0
aF0.0
aF0.04454618914856974
aF-0.0015131618927020142
aF0.004976996685540715
aF0.004668953323721141
aF0.04397370230038895
aF-0.012310711629595177
aF0.007160392730546412
aF-0.003433809413680275
aF0.022734794194883237
aF0.006589578892416406
aF0.005182868953299457
aF0.004596066344975539
aF0.23084935518210253
aF-0.05709790437014105
aF0.14014143852759917
aF-0.027097906158280397
aF0.1701414438008479
aF-0.03709790556223394
aF0.20014145083623697
aF-0.047097904966187494
aF0.08014144099564786
aF-0.007097905860257172
aF0.11014143134885337
aF-0.017097906754326844
aF0.036346717586913824
aF0.0029020942887544405
aF0.9879666385648193
aF0.16551114467064856
aF-2.2351741790771484e-08
aF0.7808319844301296
aF0.16316012201474359
aF0.0
aF0.12992083096594362
aF-0.038929510044843046
aF0.13149629759335302
aF-0.018936450353469383
aF0.13149626969753406
aF0.005615340109771339
aF0.1269436652670241
aF0.03647887208401618
aF0.09968101294572854
aF-0.030826649577125477
aF0.09670384650479308
aF0.028376002751610088
aF0.10018967098703901
aF-0.023532463960062828
aF0.10018967030825002
aF0.01021136176653452
aF0.06844590778610023
aF-0.0019086530377567775
aF0.058990639006839804
aF-0.018936370348100147
aF0.03890106785975206
aF0.005615336890953242
aF0.07707288614915755
aF-0.01496394470752807
aF0.03750370304024596
aF0.012513355709736215
aF0.07614321011967107
aF-0.023532467742246172
aF0.015692292015328273
aF0.004410563838168857
aF0.05526149043419444
aF-0.006861202727683296
aF0.032597171382781696
aF0.010211363309211938
aF0.19822663237016436
aF-0.05999999865889549
aF0.10761474335167422
aF-0.03000000044703484
aF0.13761474614253344
aF-0.039999999850988385
aF0.16761475320428432
aF-0.04999999925494194
aF0.04761474459170905
aF-0.010000000149011612
aF0.07761473617292841
aF-0.020000001043081285
aF0.0
aF0.0
aF0.8042418405509859
aF0.32243406478836817
aF0.003567513324285099
aF0.49209457402954887
aF0.14478764221336024
aF0.0003567535676026889
aF0.11208205230419918
aF-0.033829739001492
aF0.11312381190353965
aF-0.014530383232572866
aF0.11312378954601002
aF0.0018984660842321375
aF0.10928955712213903
aF0.03206829500093632
aF0.08184222983950744
aF-0.02572689187155567
aF0.07904973339906483
aF0.023965440372831447
aF0.08181719272697595
aF-0.019126394956667854
aF0.08181719202951375
aF0.006494506610147331
aF0.05007342920747598
aF-0.0015518982514134809
aF0.04374064725347042
aF-0.014530302120488343
aF0.020528587708227866
aF0.0018984628654136646
aF0.06138059438050341
aF-0.00986418831187696
aF0.021811407114944933
aF0.008102779085319173
aF0.060893280052951686
aF-0.019126396849321874
aF0.0
aF0.0
aF0.03956919896589609
aF-0.001761446908420046
aF0.017531912580944137
aF0.006494508152824751
aF0.2139618056103291
aF-0.059643245091292804
aF0.12330703426659533
aF-0.029643246879432147
aF0.15330703816607846
aF-0.0396432462833857
aF0.18330704521605629
aF-0.04964324568733925
aF0.06330703605505558
aF-0.009643246581408922
aF0.0933070270878495
aF-0.019643247475478593
aF0.013580222846791622
aF0.0003567535676026889
aF1.2156417861561044
aF-0.003051763310155737
aF-2.2351741790771484e-08
aF0.7808244486605954
aF0.1859276367738721
aF0.0
aF0.15191255044545046
aF-0.044822208713395754
aF0.1542638182743985
aF-0.023299188191309952
aF0.15426378485560693
aF0.009978077342252319
aF0.14893538442475399
aF0.04237157175398794
aF0.12167273807196664
aF-0.03671933163080705
aF0.11869557133825855
aF0.034268684259057956
aF0.12295718410054213
aF-0.02789520113774114
aF0.12295718342176241
aF0.01457407869086877
aF0.09121342123176968
aF-0.0019086543468992587
aF0.07527264849521723
aF-0.023299109382035665
aF0.061668583017825074
aF0.00997807412343469
aF0.09392917666424562
aF-0.020856625228308147
aF0.0594954247377355
aF0.018406054814266565
aF0.0924251434519435
aF-0.02789520726146397
aF0.0325485828178388
aF0.010303247088328893
aF0.0721177805957269
aF-0.01275388262932101
aF0.048879101259414214
aF0.014574080233546186
aF0.18131719529712603
aF-0.05999999865889549
aF0.09075845391283152
aF-0.03000000044703484
aF0.1207584553298636
aF-0.039999999850988385
aF0.15075846240620389
aF-0.04999999925494194
aF0.030758454473247487
aF-0.010000000149011612
aF0.06075844673408573
aF-0.020000001043081285
aF0.0
aF0.0
aF1.0333563289782035
aF-0.03688713238883264
aF-2.2351741790771484e-08
aF1.1664005543543923
aF0.167699091056082
aF0.0
aF0.13430513379787343
aF-0.04010428810513937
aF0.1360352737453196
aF-0.024174892636595734
aF0.13603523921789637
aF0.010853801596209354
aF0.13132796814741182
aF0.0376536497239669
aF0.10406531809980335
aF-0.03200142432505387
aF0.10108815126329498
aF0.029550777007991462
aF0.10472863805242835
aF-0.028770926553066914
aF0.10472863737365047
aF0.01544980004077245
aF0.07298487525033108
aF-0.0019086546096813831
aF0.07854083081470513
aF-0.02417481406740174
aF0.043440037380114545
aF0.010853798377391357
aF0.09731271379868783
aF-0.016138718529866408
aF0.057743531714729034
aF0.013688133236959665
aF0.09569338158869374
aF-0.028770930802063388
aF0.035932119722159594
aF0.005585338824629156
aF0.07550131801323924
aF-0.008035975806600443
aF0.05214734759716566
aF0.015449801583449864
aF0.17797625540296616
aF-0.05999999865889549
aF0.08737491591670599
aF-0.03000000044703484
aF0.11737491843367674
aF-0.039999999850988385
aF0.1473749254983362
aF-0.04999999925494194
aF0.027374917021250868
aF-0.010000000149011612
aF0.05737490873796018
aF-0.020000001043081285
aF0.0
aF0.0
aF1.4447977782042207
aF-0.36326344794024595
aF0.09999997913837433
aF0.8807937878081452
aF0.20884323597868373
aF0.010000000149011612
aF0.17145910109420637
aF-0.04109398005386341
aF0.17717941961017766
aF-0.022962887124942273
aF0.1771793855087301
aF0.028960315145855942
aF0.17365834488811996
aF0.057961852436954536
aF0.14121930305243466
aF-0.03299108429293674
aF0.14341853027562063
aF0.04985894909474286
aF0.1458727800503139
aF-0.027558925728471448
aF0.14587277884837543
aF0.03355627746242912
aF0.11412901762977588
aF0.008091343004531145
aF0.10747832829962863
aF-0.022962811061790437
aF0.08458418367094882
aF0.02896031192703879
aF0.12995034525599028
aF-0.017128375540115214
aF0.09038117224079466
aF0.03399633499466087
aF0.12463072938321576
aF-0.027558934208963635
aF0.06856975128582812
aF0.025893513949910334
aF0.10813894925348941
aF-0.00902563161804815
aF0.08626106840928532
aF0.033556279005106535
aF0.14524258689091826
aF-0.04999999850988388
aF0.05473728681790104
aF-0.020000000298023225
aF0.0847372868521703
aF-0.029999999701976778
aF0.11473729394319486
aF-0.03999999910593033
aF0.0
aF0.0
aF0.024737279639155244
aF-0.010000000894069671
aF0.010000000149011612
aF0.010000000149011612
aF1.2607314934047704
aF-0.6505010103742156
aF0.19999998807907104
aF1.2664005558445084
aF1.6721729426278018
aF-0.976877325861568
aF0.29999998211860657
aF1.0807937907905831
aF0.23158075242104187
aF0.03000000044703484
aF0.19131173472279492
aF-0.027660405319033292
aF0.19991693656206722
aF-0.01952583837015887
aF0.19991690459492117
aF0.06416035209123343
aF0.2007974926233271
aF0.08316529513566227
aF0.1695003320453895
aF-0.01955748905432633
aF0.17055766948559664
aF0.0750623786118346
aF0.17872484771925817
aF-0.024121936728514298
aF0.16861028877707707
aF0.06875624965761601
aF0.1368665292907934
aF0.02809133853692702
aF0.16157260036752197
aF-0.019525767041345395
aF0.1335552873331757
aF0.06416034887241676
aF0.19131173359264037
aF-0.003694776920027394
aF0.15174256526769753
aF0.05919977726176596
aF0.17872488899175903
aF-0.02412194754746081
aF0.12993113908342735
aF0.05109694589658422
aF0.16950033808079573
aF0.004407969255881148
aF0.15070799602606189
aF0.06875625120029341
aF0.08382824437324096
aF-0.029999998211860657
aF0.0
aF0.0
aF0.023375899045467913
aF-0.00999999940395355
aF0.05337590615106266
aF-0.019999998807907104
aF0.0371988024488146
aF0.020000000298023225
aF0.009999999403953554
aF0.009999999403953554
aF0.06786944740157368
aF0.03000000044703484
aF1.4773732572648917
aF-1.2973952876789083
aF0.3925057922958007
aF1.4664005588247404
aF0.21210078388475084
aF0.03925058146475425
aF0.223363530936421
aF-0.013683219276516485
aF0.19013830061587877
aF-0.018886035261297323
aF0.1804369373683479
aF0.08139135371857154
aF0.18437553165721846
aF0.08705884955950477
aF0.20155212825132862
aF-0.005580315418694808
aF0.1619829270092992
aF0.07895595123222954
aF0.20729027035986836
aF-0.023482193468106434
aF0.18406187374702318
aF0.08598721871155843
aF0.16393995860072155
aF0.03734191706534621
aF0.19013797495565646
aF-0.018885966382681182
aF0.1669091680637623
aF0.08139135049975449
aF0.22336353039907883
aF0.010282397210551377
aF0.18379435746989517
aF0.063093332230962
aF0.20729030399621634
aF-0.023482202283623226
aF0.16198293526185328
aF0.0549905179313346
aF0.20155213557999452
aF0.018385144563741188
aF0.1840618798046371
aF0.08598722025423583
aF0.05182204717535272
aF-0.020749417194141244
aF0.009250581017719396
aF0.009250581017719414
aF0.000749418386234137
aF-0.000749418386234137
aF0.021324109969328618
aF-0.01074941779018769
aF0.0692505997935173
aF0.02925058131574264
aF0.03925059275880813
aF0.019250580421672967
aF0.09992124358330771
aF0.03925058146475425
aF1.8888177097047074
aF-1.6238360391553912
aF0.4999999701976776
aF1.280791560131632
aF1.6942515573659245
aF-1.9434256472479932
aF0.5999999642372131
aF1.666400546903812
a.