(lp0
(lp1
I21
aI21
aI21
aI21
aI21
aI21
aI21
aI21
aI21
aI21
aI21
aI21
aI21
aI21
aI21
aI21
aI21
aI21
aI21
aI21
aI21
aI21
aI21
aI21
aI21
aI21
aI21
aI21
aI21
aI21
aI21
aI21
aI21
aI21
aI21
aI21
aI21
aI21
aI21
aI21
aI21
aI21
aI21
aI21
aI21
aI21
aI21
aI21
aI21
aI21
aa(lp2
F1.2857142857142858
aF1.2857142857142858
aF1.2857142857142858
aF1.2857142857142858
aF1.2857142857142858
aF1.2857142857142858
aF1.2857142857142858
aF1.2857142857142858
aF1.2857142857142858
aF1.2857142857142858
aF1.2857142857142858
aF1.2857142857142858
aF1.2857142857142858
aF1.2857142857142858
aF1.2857142857142858
aF1.2857142857142858
aF1.2857142857142858
aF1.2857142857142858
aF1.2857142857142858
aF1.2857142857142858
aF1.2857142857142858
aF1.2857142857142858
aF1.2857142857142858
aF1.2857142857142858
aF1.2857142857142858
aF1.2857142857142858
aF1.2857142857142858
aF1.2857142857142858
aF1.2857142857142858
aF1.2857142857142858
aF1.2857142857142858
aF1.2857142857142858
aF1.2857142857142858
aF1.2857142857142858
aF1.2857142857142858
aF1.2857142857142858
aF1.2857142857142858
aF1.2857142857142858
aF1.2857142857142858
aF1.2857142857142858
aF1.2857142857142858
aF1.2857142857142858
aF1.2857142857142858
aF1.2857142857142858
aF1.2857142857142858
aF1.2857142857142858
aF1.2857142857142858
aF1.2857142857142858
aF1.2857142857142858
aF1.2857142857142858
aa(lp3
F93.904
aF91.079
aF92.309
aF92.991
aF101.54299999999999
aF97.613
aF93.52000000000001
aF97.556
aF89.052
aF97.845
aF96.58999999999999
aF96.54899999999999
aF97.337
aF92.336
aF90.845
aF96.813
aF95.44800000000001
aF100.01
aF96.83500000000001
aF100.54599999999999
aF99.265
aF92.20299999999999
aF95.387
aF94.42200000000001
aF93.044
aF91.922
aF92.067
aF92.154
aF93.417
aF93.858
aF92.57600000000001
aF92.796
aF92.52000000000001
aF94.711
aF92.482
aF93.546
aF92.747
aF94.367
aF94.571
aF94.567
aF93.678
aF92.403
aF91.747
aF92.94
aF89.662
aF93.566
aF91.38000000000001
aF92.399
aF93.125
aF92.675
aa(lp4
F83.398
aF82.83099999999999
aF82.232
aF83.179
aF86.923
aF87.311
aF83.786
aF82.589
aF83.81700000000001
aF86.921
aF87.079
aF88.10900000000001
aF84.131
aF81.416
aF82.67699999999999
aF85.567
aF87.497
aF87.258
aF87.849
aF83.628
aF87.068
aF82.868
aF84.84700000000001
aF83.31700000000001
aF83.217
aF81.946
aF84.337
aF82.268
aF83.238
aF82.309
aF83.154
aF80.902
aF81.908
aF81.97299999999998
aF85.119
aF83.332
aF82.15
aF81.59
aF81.315
aF82.90699999999998
aF83.548
aF83.85999999999999
aF81.953
aF83.882
aF82.46600000000001
aF82.04400000000001
aF82.156
aF81.97
aF81.50699999999999
aF82.62700000000001
aa.