(lp0
(lp1
I28
aI28
aI28
aI28
aI28
aI28
aI28
aI28
aI28
aI28
aa(lp2
F2.4285714285714284
aF2.4285714285714284
aF2.4285714285714284
aF2.4285714285714284
aF2.4285714285714284
aF2.4285714285714284
aF2.4285714285714284
aF2.4285714285714284
aF2.4285714285714284
aF2.4285714285714284
aa(lp3
F224.879
aF215.887
aF223.278
aF225.173
aF227.458
aF221.87599999999998
aF231.94799999999998
aF224.5
aF228.497
aF229.564
aa(lp4
F206.327
aF202.272
aF206.47699999999998
aF201.747
aF199.58299999999997
aF199.486
aF202.117
aF205.25799999999998
aF202.12400000000002
aF208.064
aa.