(lp0
(lp1
I12
aI12
aI12
aI12
aI12
aI12
aI12
aI12
aI12
aI12
aI12
aI12
aI12
aI12
aI12
aI12
aI12
aI12
aI12
aI12
aa(lp2
F3.0833333333333335
aF3.0833333333333335
aF3.0833333333333335
aF3.0833333333333335
aF3.0833333333333335
aF3.0833333333333335
aF3.0833333333333335
aF3.0833333333333335
aF3.0833333333333335
aF3.0833333333333335
aF3.0833333333333335
aF3.0833333333333335
aF3.0833333333333335
aF3.0833333333333335
aF3.0833333333333335
aF3.0833333333333335
aF3.0833333333333335
aF3.0833333333333335
aF3.0833333333333335
aF3.0833333333333335
aa(lp3
F673.3670000000001
aF246.308
aF728.488
aF241.146
aF187.914
aF239.54600000000002
aF220.945
aF639.8190000000001
aF809.472
aF534.408
aF668.3679999999999
aF224.163
aF236.308
aF190.838
aF239.285
aF726.1469999999999
aF243.032
aF923.98
aF245.92
aF229.147
aa(lp4
F1419.4920000000002
aF1210.852
aF1426.9639999999997
aF3232.4039999999995
aF3245.5760000000005
aF1213.625
aF1383.4600000000005
aF1156.433
aF1206.278999999999
aF1198.7120000000002
aF1155.122
aF1141.8650000000002
aF3246.042999999999
aF1331.0919999999999
aF1200.17
aF1154.993
aF3224.763000000002
aF3236.7179999999994
aF1212.5310000000002
aF3252.2110000000007
aaI0
aI0
a(lp5
a.