(lp0
(lp1
I16
aI16
aI16
aI16
aI16
aI16
aI16
aI16
aI16
aI16
aI16
aI16
aI16
aI16
aI16
aI16
aI16
aI16
aI16
aI16
aI16
aI16
aI16
aI16
aI16
aI16
aI16
aI16
aI16
aI16
aI16
aI16
aI16
aI16
aI16
aI16
aI16
aI16
aI16
aI16
aI16
aI16
aI16
aI16
aI16
aI16
aI16
aI16
aI16
aI16
aI16
aI16
aI16
aI16
aI16
aI16
aI16
aI16
aI16
aI16
aI16
aI16
aI16
aI16
aI16
aI16
aI16
aI16
aI16
aI16
aI16
aI16
aI16
aI16
aI16
aI16
aI16
aI16
aI16
aI16
aI16
aI16
aI16
aI16
aI16
aI16
aI16
aI16
aI16
aI16
aI16
aI16
aI16
aI16
aI16
aI16
aI16
aI16
aI16
aI16
aa(lp2
F3.0
aF3.0
aF3.0
aF3.0
aF3.0
aF3.0
aF3.0
aF3.0
aF3.0
aF3.0
aF3.0
aF3.0
aF3.0
aF3.0
aF3.0
aF3.0
aF3.0
aF3.0
aF3.0
aF3.0
aF3.0
aF3.0
aF3.0
aF3.0
aF3.0
aF3.0
aF3.0
aF3.0
aF3.0
aF3.0
aF3.0
aF3.0
aF3.0
aF3.0
aF3.0
aF3.0
aF3.0
aF3.0
aF3.0
aF3.0
aF3.0
aF3.0
aF3.0
aF3.0
aF3.0
aF3.0
aF3.0
aF3.0
aF3.0
aF3.0
aF3.0
aF3.0
aF3.0
aF3.0
aF3.0
aF3.0
aF3.0
aF3.0
aF3.0
aF3.0
aF3.0
aF3.0
aF3.0
aF3.0
aF3.0
aF3.0
aF3.0
aF3.0
aF3.0
aF3.0
aF3.0
aF3.0
aF3.0
aF3.0
aF3.0
aF3.0
aF3.0
aF3.0
aF3.0
aF3.0
aF3.0
aF3.0
aF3.0
aF3.0
aF3.0
aF3.0
aF3.0
aF3.0
aF3.0
aF3.0
aF3.0
aF3.0
aF3.0
aF3.0
aF3.0
aF3.0
aF3.0
aF3.0
aF3.0
aF3.0
aa(lp3
F124.715
aF126.913
aF127.284
aF120.63799999999999
aF121.854
aF120.812
aF120.872
aF120.832
aF124.36
aF126.31800000000001
aF126.967
aF129.719
aF124.712
aF121.132
aF123.739
aF124.53
aF125.34600000000002
aF123.205
aF120.60600000000001
aF121.95400000000001
aF124.087
aF124.831
aF123.09299999999999
aF123.798
aF125.45700000000001
aF124.424
aF126.007
aF124.556
aF124.92399999999999
aF121.916
aF132.832
aF124.942
aF125.07399999999998
aF123.732
aF124.714
aF125.367
aF127.43499999999999
aF127.18499999999999
aF130.242
aF123.477
aF125.687
aF124.257
aF125.577
aF128.612
aF125.36500000000001
aF120.612
aF120.197
aF122.744
aF126.02499999999999
aF124.592
aF126.17900000000002
aF124.488
aF123.538
aF123.594
aF125.84100000000001
aF123.398
aF124.138
aF124.224
aF123.524
aF123.299
aF121.72
aF123.631
aF129.131
aF124.44800000000001
aF126.82199999999999
aF121.647
aF124.467
aF125.36800000000001
aF125.35
aF124.509
aF124.99000000000001
aF125.45899999999999
aF126.805
aF121.973
aF124.583
aF124.616
aF125.877
aF126.28800000000001
aF126.303
aF121.363
aF123.881
aF150.148
aF123.86999999999999
aF127.25800000000001
aF124.514
aF125.42500000000001
aF126.73799999999999
aF120.573
aF124.226
aF125.44500000000001
aF122.794
aF126.164
aF125.98599999999999
aF124.863
aF123.526
aF125.254
aF123.75800000000001
aF128.705
aF128.229
aF128.244
aaI0
a.