(lp0
(lp1
I27
aI29
aI29
aI29
aI29
aI29
aI29
aI29
aI29
aI29
aI29
aI29
aI29
aI29
aI29
aI29
aI29
aI29
aI29
aI29
aI29
aI29
aI29
aI29
aI29
aI29
aI29
aI29
aI29
aI29
aI29
aI29
aI29
aI29
aI29
aI29
aI29
aI29
aI29
aI29
aI29
aI29
aI29
aI29
aI29
aI29
aI29
aI29
aI29
aI29
aI29
aI29
aI29
aI29
aI29
aI29
aI29
aI29
aI29
aI29
aI29
aI29
aI29
aI29
aI29
aI29
aI29
aI29
aI29
aI29
aI29
aI29
aI29
aI29
aI29
aI29
aI29
aI29
aI29
aI29
aI29
aI29
aI29
aI29
aI29
aI29
aI29
aI29
aI29
aI29
aI29
aI29
aI29
aI29
aI29
aI29
aI29
aI29
aI29
aI29
aa(lp2
F3.24
aF3.3333333333333335
aF3.2962962962962963
aF3.3333333333333335
aF3.3333333333333335
aF3.3333333333333335
aF3.3333333333333335
aF3.3333333333333335
aF3.3333333333333335
aF3.3333333333333335
aF3.2962962962962963
aF3.3333333333333335
aF3.2962962962962963
aF3.3333333333333335
aF3.3333333333333335
aF3.2962962962962963
aF3.3333333333333335
aF3.3333333333333335
aF3.2962962962962963
aF3.2962962962962963
aF3.3333333333333335
aF3.2962962962962963
aF3.3333333333333335
aF3.3333333333333335
aF3.3333333333333335
aF3.2962962962962963
aF3.3333333333333335
aF3.3333333333333335
aF3.3333333333333335
aF3.2962962962962963
aF3.2962962962962963
aF3.2962962962962963
aF3.2962962962962963
aF3.2962962962962963
aF3.3333333333333335
aF3.3333333333333335
aF3.3333333333333335
aF3.2962962962962963
aF3.3333333333333335
aF3.2962962962962963
aF3.2962962962962963
aF3.3333333333333335
aF3.3333333333333335
aF3.3333333333333335
aF3.2962962962962963
aF3.2962962962962963
aF3.2962962962962963
aF3.2962962962962963
aF3.3333333333333335
aF3.2962962962962963
aF3.2962962962962963
aF3.3333333333333335
aF3.2962962962962963
aF3.2962962962962963
aF3.3333333333333335
aF3.3333333333333335
aF3.2962962962962963
aF3.3333333333333335
aF3.2962962962962963
aF3.3333333333333335
aF3.3333333333333335
aF3.3333333333333335
aF3.2962962962962963
aF3.2962962962962963
aF3.3333333333333335
aF3.2962962962962963
aF3.2962962962962963
aF3.2962962962962963
aF3.2962962962962963
aF3.3333333333333335
aF3.3333333333333335
aF3.2962962962962963
aF3.3333333333333335
aF3.2962962962962963
aF3.2962962962962963
aF3.3333333333333335
aF3.2962962962962963
aF3.2962962962962963
aF3.3333333333333335
aF3.3333333333333335
aF3.3333333333333335
aF3.2962962962962963
aF3.3333333333333335
aF3.3333333333333335
aF3.3333333333333335
aF3.3333333333333335
aF3.3333333333333335
aF3.3333333333333335
aF3.3333333333333335
aF3.2962962962962963
aF3.2962962962962963
aF3.2962962962962963
aF3.2962962962962963
aF3.2962962962962963
aF3.2962962962962963
aF3.3333333333333335
aF3.3333333333333335
aF3.3333333333333335
aF3.3333333333333335
aF3.3333333333333335
aa(lp3
F876.016
aF985.1569999999999
aF1174.0349999999999
aF1074.967
aF1000.3109999999999
aF1182.027
aF1018.4949999999999
aF958.476
aF990.698
aF921.8539999999999
aF926.708
aF1083.9
aF1041.556
aF1002.6800000000001
aF990.614
aF986.567
aF1004.5500000000001
aF1008.148
aF994.186
aF982.769
aF2570.425
aF1009.7879999999999
aF1015.87
aF999.913
aF1279.5330000000001
aF1424.5620000000001
aF1227.3970000000002
aF1804.398
aF1010.014
aF1007.126
aF1021.676
aF997.62
aF1072.526
aF990.173
aF1002.6170000000001
aF1015.9689999999999
aF1008.3539999999999
aF995.114
aF996.6279999999999
aF1007.944
aF979.737
aF998.032
aF1009.906
aF1003.0360000000001
aF1213.652
aF1006.837
aF1039.237
aF1004.5319999999999
aF988.8000000000001
aF999.3870000000001
aF1112.742
aF1061.892
aF1011.3270000000001
aF1186.558
aF1018.4949999999999
aF966.357
aF1001.532
aF998.8979999999999
aF995.401
aF975.109
aF1015.2429999999999
aF1306.71
aF994.841
aF997.2529999999999
aF963.573
aF1011.5780000000001
aF1025.166
aF997.133
aF1045.496
aF1005.174
aF1203.154
aF1028.65
aF1023.2429999999999
aF998.4699999999999
aF995.477
aF992.015
aF1012.2919999999999
aF978.052
aF1024.759
aF999.186
aF944.6360000000001
aF996.831
aF1014.4029999999999
aF1156.542
aF1000.6679999999999
aF1220.932
aF996.386
aF1002.319
aF1009.7020000000001
aF999.9820000000001
aF1002.608
aF990.739
aF2439.572
aF994.829
aF1026.289
aF1312.5819999999999
aF1005.058
aF1035.327
aF1040.956
aF1009.3160000000001
aaI0
a.