(lp0
(lp1
I12
aI12
aI12
aI12
aI12
aI12
aI12
aI12
aI12
aI12
aI12
aI12
aI12
aI12
aI12
aI12
aI12
aI12
aI12
aI12
aI12
aI12
aI12
aI12
aI12
aI12
aI12
aI12
aI12
aI12
aI12
aI12
aI12
aI12
aI12
aI12
aI12
aI12
aI12
aI12
aI12
aI12
aI12
aI12
aI12
aI12
aI12
aI12
aI12
aI12
aI12
aI12
aI12
aI12
aI12
aI12
aI12
aI12
aI12
aI12
aI12
aI12
aI12
aI12
aI12
aI12
aI12
aI12
aI12
aI12
aI12
aI12
aI12
aI12
aI12
aI12
aI12
aI12
aI12
aI12
aI12
aI12
aI12
aI12
aI12
aI12
aI12
aI12
aI12
aI12
aI12
aI12
aI12
aI12
aI12
aI12
aI12
aI12
aI12
aI12
aa(lp2
F7.083333333333333
aF7.083333333333333
aF7.083333333333333
aF7.083333333333333
aF7.083333333333333
aF7.083333333333333
aF7.083333333333333
aF7.083333333333333
aF7.083333333333333
aF7.083333333333333
aF7.083333333333333
aF7.083333333333333
aF7.083333333333333
aF7.083333333333333
aF7.083333333333333
aF7.083333333333333
aF7.083333333333333
aF7.083333333333333
aF7.083333333333333
aF7.083333333333333
aF7.083333333333333
aF7.083333333333333
aF7.083333333333333
aF7.083333333333333
aF7.083333333333333
aF7.083333333333333
aF7.083333333333333
aF7.083333333333333
aF7.083333333333333
aF7.083333333333333
aF7.083333333333333
aF7.083333333333333
aF7.083333333333333
aF7.083333333333333
aF7.083333333333333
aF7.083333333333333
aF7.083333333333333
aF7.083333333333333
aF7.083333333333333
aF7.083333333333333
aF7.083333333333333
aF7.083333333333333
aF7.083333333333333
aF7.083333333333333
aF7.083333333333333
aF7.083333333333333
aF7.083333333333333
aF7.083333333333333
aF7.083333333333333
aF7.083333333333333
aF7.083333333333333
aF7.083333333333333
aF7.083333333333333
aF7.083333333333333
aF7.083333333333333
aF7.083333333333333
aF7.083333333333333
aF7.083333333333333
aF7.083333333333333
aF7.083333333333333
aF7.083333333333333
aF7.083333333333333
aF7.083333333333333
aF7.083333333333333
aF7.083333333333333
aF7.083333333333333
aF7.083333333333333
aF7.083333333333333
aF7.083333333333333
aF7.083333333333333
aF7.083333333333333
aF7.083333333333333
aF7.083333333333333
aF7.083333333333333
aF7.083333333333333
aF7.083333333333333
aF7.083333333333333
aF7.083333333333333
aF7.083333333333333
aF7.083333333333333
aF7.083333333333333
aF7.083333333333333
aF7.083333333333333
aF7.083333333333333
aF7.083333333333333
aF7.083333333333333
aF7.083333333333333
aF7.083333333333333
aF7.083333333333333
aF7.083333333333333
aF7.083333333333333
aF7.083333333333333
aF7.083333333333333
aF7.083333333333333
aF7.083333333333333
aF7.083333333333333
aF7.083333333333333
aF7.083333333333333
aF7.083333333333333
aF7.083333333333333
aa(lp3
F357.264
aF367.29
aF303.976
aF358.861
aF305.40099999999995
aF2894.887
aF311.387
aF2510.417
aF2365.367
aF319.56
aF308.536
aF393.233
aF308.00100000000003
aF356.57800000000003
aF2035.9080000000001
aF317.327
aF326.69
aF381.368
aF323.22499999999997
aF311.91999999999996
aF344.32099999999997
aF308.894
aF308.38599999999997
aF307.70399999999995
aF312.012
aF359.04999999999995
aF350.97299999999996
aF1599.317
aF330.50800000000004
aF377.63
aF319.474
aF1943.841
aF355.47200000000004
aF365.43399999999997
aF357.692
aF332.787
aF356.402
aF311.801
aF320.612
aF352.618
aF325.247
aF1494.3439999999998
aF306.688
aF303.822
aF307.483
aF343.815
aF2307.51
aF347.34999999999997
aF328.23
aF2038.9240000000002
aF320.278
aF319.517
aF338.69599999999997
aF308.99
aF331.086
aF341.22799999999995
aF323.788
aF322.692
aF346.134
aF314.711
aF313.876
aF373.51800000000003
aF2857.5910000000003
aF348.80400000000003
aF2765.9379999999996
aF3092.817
aF306.645
aF1432.2440000000001
aF2293.3210000000004
aF341.705
aF2075.82
aF3909.297
aF334.28000000000003
aF307.462
aF903.146
aF316.024
aF301.12100000000004
aF309.836
aF320.743
aF326.42199999999997
aF2111.3019999999997
aF345.429
aF331.343
aF349.252
aF323.87899999999996
aF363.67
aF306.498
aF347.454
aF310.433
aF396.681
aF336.394
aF2123.817
aF2649.044
aF2546.312
aF329.746
aF307.042
aF1484.038
aF317.443
aF367.711
aF311.38
aa(lp4
F97.601
aF95.766
aF97.96199999999999
aF482.55
aF91.945
aF477.4790000000001
aF95.96000000000001
aF481.1869999999999
aF96.382
aF478.87899999999996
aF96.80599999999998
aF97.87700000000001
aF482.267
aF95.964
aF480.10900000000004
aF95.903
aF96.445
aF95.26700000000001
aF479.2099999999999
aF95.73100000000001
aF481.709
aF478.75
aF92.518
aF481.535
aF474.542
aF481.1090000000001
aF486.899
aF480.639
aF480.431
aF93.644
aF483.6719999999999
aF94.10999999999999
aF97.61500000000001
aF480.742
aF477.49899999999997
aF96.755
aF96.809
aF95.854
aF476.9239999999999
aF480.80500000000006
aF95.057
aF481.2990000000001
aF478.27699999999993
aF96.15
aF96.068
aF479.71000000000004
aF94.59
aF94.422
aF93.357
aF480.69699999999995
aF95.557
aF480.583
aF96.422
aF99.00999999999999
aF93.827
aF95.34700000000001
aF479.9939999999999
aF97.505
aF91.56400000000001
aF89.20400000000001
aF96.005
aF482.35
aF479.62500000000006
aF96.14000000000001
aF96.015
aF97.083
aF479.86400000000003
aF481.69099999999986
aF483.172
aF98.121
aF94.451
aF93.868
aF481.21299999999997
aF482.32
aF99.135
aF479.749
aF94.924
aF93.852
aF97.55700000000002
aF98.7
aF480.802
aF93.66799999999999
aF93.655
aF481.99899999999997
aF97.42
aF485.531
aF479.678
aF95.761
aF97.938
aF98.86800000000001
aF480.859
aF97.233
aF98.455
aF480.29099999999994
aF94.326
aF480.99500000000006
aF477.631
aF97.402
aF475.4639999999999
aF480.74
aaI0
aI0
a(lp5
a.