(lp0
(lp1
I7
aI5
aI4
aI7
aI6
aI3
aI3
aI6
aI7
aI6
aI4
aI6
aI4
aI5
aI7
aI4
aI3
aI6
aI3
aI6
aI7
aI5
aI5
aI5
aI7
aI5
aI7
aI7
aI6
aI3
aI3
aI3
aI4
aI4
aI6
aI6
aI6
aI6
aI6
aI6
aI4
aI5
aI6
aI3
aI6
aI3
aI6
aI3
aI4
aI4
aI3
aI3
aa(lp2
F4.142857142857143
aF3.2
aF3.0
aF4.714285714285714
aF4.0
aF2.6666666666666665
aF2.0
aF3.8333333333333335
aF4.0
aF3.0
aF2.75
aF3.8333333333333335
aF3.5
aF2.8
aF4.142857142857143
aF3.0
aF2.3333333333333335
aF2.1666666666666665
aF2.3333333333333335
aF2.3333333333333335
aF3.2857142857142856
aF2.6
aF3.2
aF3.0
aF4.142857142857143
aF3.6
aF4.142857142857143
aF4.571428571428571
aF4.0
aF2.6666666666666665
aF2.6666666666666665
aF2.3333333333333335
aF2.75
aF3.25
aF1.5
aF3.0
aF3.0
aF4.166666666666667
aF2.8333333333333335
aF1.5
aF3.25
aF3.6
aF3.8333333333333335
aF1.0
aF1.5
aF2.3333333333333335
aF1.5
aF1.0
aF3.25
aF1.5
aF2.0
aF1.0
aa(lp3
F86.836
aF141.047
aF125.23100000000001
aF92.52499999999999
aF86.93299999999999
aF108.17
aF86.777
aF74.363
aF84.02
aF111.567
aF73.677
aF65.618
aF152.787
aF141.96800000000002
aF90.135
aF148.458
aF110.977
aF133.762
aF105.553
aF121.36800000000001
aF62.168
aF169.254
aF115.286
aF140.568
aF88.446
aF145.24
aF68.08200000000001
aF90.63
aF90.835
aF118.30300000000001
aF106.847
aF122.14500000000001
aF132.91400000000002
aF136.231
aF145.508
aF113.168
aF106.712
aF66.645
aF132.452
aF99.67
aF130.545
aF122.12
aF45.004000000000005
aF25.395
aF145.013
aF98.37899999999999
aF145.697
aF25.221
aF145.323
aF54.577
aF118.385
aF23.892
aaF169.254
aF23.892
a(lp4
F30.065
aF86.28899999999999
aF70.03299999999999
aF73.31200000000001
aF24.989
aF68.67
aF49.019
aF42.882999999999996
aF89.505
aF134.97
aF67.781
aF41.675000000000004
aF94.379
aF79.281
aF30.607
aF95.734
aF51.391000000000005
aF96.813
aF77.569
aF98.949
aF70.701
aF83.34700000000001
aF85.637
aF84.523
aF30.360999999999997
aF63.202000000000005
aF75.136
aF74.828
aF37.289
aF53.586
aF69.836
aF72.317
aF70.787
aF71.66300000000001
aF99.156
aF97.505
aF96.76500000000001
aF25.569
aF67.801
aF97.19399999999999
aF81.89
aF68.286
aF38.069
aF48.665
aF98.905
aF58.852000000000004
aF99.71600000000001
aF48.846000000000004
aF70.00399999999999
aF66.136
aF51.642
aF45.788
aaF134.97
aF24.989
a.