(lp0
(lp1
I6
aI6
aI7
aI6
aI6
aI6
aI6
aI6
aI6
aI7
aI5
aI5
aI6
aI7
aI6
aI6
aI6
aI6
aI6
aI6
aI6
aI6
aa(lp2
F2.5
aF2.5
aF2.6
aF2.5
aF2.5
aF2.25
aF2.5
aF2.5
aF2.5
aF2.6
aF2.3333333333333335
aF2.3333333333333335
aF2.5
aF2.4
aF2.5
aF2.5
aF2.0
aF2.0
aF2.0
aF2.5
aF2.0
aF2.5
aa(lp3
F107.545
aF106.291
aF90.266
aF112.706
aF113.44
aF121.84
aF118.15100000000001
aF113.584
aF110.575
aF47.604
aF150.454
aF128.639
aF117.789
aF76.44
aF119.23100000000001
aF98.30999999999999
aF123.794
aF133.17200000000003
aF104.84400000000001
aF122.17500000000001
aF126.217
aF117.32900000000001
aaF150.454
aF47.604
a(lp4
F103.732
aF117.381
aF53.40899999999999
aF103.602
aF64.946
aF65.274
aF103.359
aF102.53200000000001
aF64.828
aF94.505
aF84.719
aF87.805
aF63.801
aF108.86600000000001
aF102.4
aF106.66600000000001
aF64.322
aF62.764
aF63.62899999999999
aF63.827999999999996
aF63.9
aF103.585
aaF117.381
aF53.40899999999999
a.