(lp0
(lp1
F0.7640951033595854
aF0.663976969960588
aF0.8677939525047169
aF0.9093785250164117
aF1.5818077767375875
aF1.0251855154634884
aF1.4680239899184562
aF0.7725948564573535
aF0.7454694165395577
aF0.6343296615597951
aF1.3335075661811735
aF1.2831655188356121
aF0.9362875662779853
aF1.6396597294113349
aF1.3528031270631866
aF1.1086553864879782
aF1.2122006512090342
aF0.7132543090656225
aF1.138005209981037
aF0.8600694907798225
aF1.2927712793553507
aF1.0535275922784852
aF1.5943583263999277
aF1.083167022243158
aF1.1360327719907581
aa(lp2
F1.2550135891818908
aF0.5524157672737326
aF0.5504739964912286
aF0.7454694165395577
aF0.6343296615597951
aF1.2831655188356121
aF1.2122006512090342
aF0.7132543090656225
aF0.8600694907798225
aF1.2927712793553507
aa(lp3
F0.7640951033595854
aF1.2550135891818908
aF0.9093785250164117
aF1.0251855154634884
aF0.7725948564573535
aF1.7084175292916939
aF1.1086553864879782
aF1.2122006512090342
aF0.8600694907798225
aF1.0535275922784852
aF1.083167022243158
aF1.1360327719907581
aa(lp4
F1.766914454480329
aF1.2550135891818908
aF1.7235274058681032
aF1.2373507581270218
aF1.9212977645140101
aF0.8008843292042
aF0.5524157672737326
aF0.5504739964912286
aF1.8594079718810113
aF1.5221620195374392
aF1.8814651327360274
aF1.8266342945722955
aF1.3960846010505805
aF1.1556519455984842
aF1.5488831138003916
aF1.9871333904249702
aF1.508918742900022
aF1.7084175292916939
aF1.4258974015487036
aF1.2466786987352083
aF0.9332966617385041
aF1.5082186703059692
aF1.7019576982174827
aF1.7121319588873178
aF1.5568643031080576
aa(lp5
F1.766914454480329
aF0.7640951033595854
aF0.663976969960588
aF0.8677939525047169
aF1.7235274058681032
aF1.2373507581270218
aF0.9093785250164117
aF1.9212977645140101
aF1.5818077767375875
aF1.0251855154634884
aF1.4680239899184562
aF0.8008843292042
aF1.8594079718810113
aF1.5221620195374392
aF0.7725948564573535
aF1.8814651327360274
aF1.8266342945722955
aF1.3960846010505805
aF1.1556519455984842
aF1.3335075661811735
aF1.5488831138003916
aF1.9871333904249702
aF0.9362875662779853
aF1.6396597294113349
aF1.508918742900022
aF1.3528031270631866
aF1.7084175292916939
aF1.1086553864879782
aF1.4258974015487036
aF1.138005209981037
aF1.2466786987352083
aF0.9332966617385041
aF1.5082186703059692
aF1.0535275922784852
aF1.5943583263999277
aF1.7019576982174827
aF1.7121319588873178
aF1.083167022243158
aF1.5568643031080576
aF1.1360327719907581
aa(lp6
F1.766914454480329
aF0.663976969960588
aF0.8677939525047169
aF1.7235274058681032
aF1.2373507581270218
aF1.9212977645140101
aF1.5818077767375875
aF1.4680239899184562
aF0.8008843292042
aF0.5524157672737326
aF0.5504739964912286
aF1.8594079718810113
aF1.5221620195374392
aF1.8814651327360274
aF0.7454694165395577
aF1.8266342945722955
aF1.3960846010505805
aF0.6343296615597951
aF1.1556519455984842
aF1.3335075661811735
aF1.5488831138003916
aF1.9871333904249702
aF1.2831655188356121
aF0.9362875662779853
aF1.6396597294113349
aF1.508918742900022
aF1.3528031270631866
aF1.4258974015487036
aF0.7132543090656225
aF1.138005209981037
aF1.2466786987352083
aF0.9332966617385041
aF1.2927712793553507
aF1.5082186703059692
aF1.5943583263999277
aF1.7019576982174827
aF1.7121319588873178
aF1.5568643031080576
aa(lp7
I21
aI24
aI19
aI18
aI10
aI16
aI11
aI21
aI22
aI25
aI12
aI13
aI17
aI10
aI12
aI15
aI13
aI23
aI14
aI19
aI13
aI15
aI10
aI15
aI14
aa(lp8
I13
aI29
aI29
aI22
aI25
aI13
aI13
aI23
aI19
aI13
aa(lp9
I21
aI13
aI18
aI16
aI21
aI10
aI15
aI13
aI19
aI15
aI15
aI14
aa(lp10
(lp11
I9
aI13
aI10
aI13
aI9
aI20
aI29
aI29
aI9
aI11
aI9
aI9
aI12
aI14
aI11
aI8
aI11
aI10
aI12
aI13
aI17
aI11
aI10
aI10
aI11
aa(lp12
I4
aI2
aI4
aI2
aI4
aI1
aI1
aI1
aI4
aI2
aI4
aI4
aI2
aI2
aI2
aI4
aI2
aI4
aI2
aI2
aI2
aI2
aI4
aI4
aI2
aaa(lp13
(lp14
I9
aI21
aI24
aI19
aI10
aI13
aI18
aI9
aI10
aI16
aI11
aI20
aI9
aI11
aI21
aI9
aI9
aI12
aI14
aI12
aI11
aI8
aI17
aI10
aI11
aI12
aI10
aI15
aI12
aI14
aI13
aI17
aI11
aI15
aI10
aI10
aI10
aI15
aI11
aI14
aa(lp15
I4
aI2
aI2
aI1
aI4
aI2
aI2
aI4
aI4
aI2
aI4
aI1
aI4
aI4
aI2
aI4
aI4
aI4
aI4
aI4
aI4
aI4
aI2
aI4
aI4
aI4
aI4
aI4
aI4
aI4
aI2
aI2
aI4
aI2
aI4
aI4
aI4
aI4
aI4
aI4
aaa(lp16
(lp17
I9
aI24
aI19
aI10
aI13
aI9
aI10
aI11
aI20
aI29
aI29
aI9
aI11
aI9
aI22
aI9
aI12
aI25
aI14
aI12
aI11
aI8
aI13
aI17
aI10
aI11
aI12
aI12
aI23
aI14
aI13
aI17
aI13
aI11
aI10
aI10
aI10
aI11
aa(lp18
I2
aI1
aI1
aI2
aI1
aI2
aI2
aI3
aI1
aI1
aI1
aI2
aI2
aI2
aI1
aI2
aI2
aI1
aI2
aI2
aI2
aI1
aI2
aI2
aI2
aI2
aI2
aI2
aI1
aI2
aI1
aI1
aI2
aI2
aI2
aI2
aI2
aI2
aaa.