(lp0
(lp1
F1.6281879424839352
aF0.5038656305093957
aF1.5781761749304337
aF1.5805030343075832
aF1.3393668956449765
aF0.7862588981115827
aF1.5686678601052622
aF1.2706730667371509
aF1.4061233797002957
aF1.2832459035207977
aF1.5704403005948628
aF1.2938558650663339
aF1.3428045304636256
aF0.8975411269334865
aF1.104382763378497
aF1.3787257317637447
aF1.463452636416571
aF0.7941681785219497
aF0.8583599556742921
aF1.4786524118725848
aF0.7353681503144913
aF0.7657205085229644
aF1.6450191236715996
aF1.32002946133502
aF0.8773412970717329
aF1.5420654432541214
aF0.6113551755564245
aF1.0314064555878417
aF1.5515411462554238
aa(lp2
F0.7862588981115827
aF0.9271000806272309
aF1.2832459035207977
aF1.2078657626133356
aF1.2938558650663339
aF0.8975411269334865
aF0.7941681785219497
aF0.8583599556742921
aF0.7353681503144913
aF0.7657205085229644
aF1.32002946133502
aF0.8773412970717329
aa(lp3
F1.6281879424839352
aF1.5781761749304337
aF1.5805030343075832
aF1.1321854163581049
aF1.2706730667371509
aF1.0470647486999398
aF1.2360109705407591
aF1.2078657626133356
aF1.2369489811184533
aF1.104382763378497
aF1.463452636416571
aF0.7941681785219497
aF1.0469433357321694
aF1.6450191236715996
aF1.32002946133502
aF1.5420654432541214
aF1.0314064555878417
aF1.5515411462554238
aF1.2388264984337032
aa(lp4
F1.7423539918346822
aF1.7951070279898014
aF1.1321854163581049
aF1.742287880191193
aF1.8821468575695137
aF1.7802583817972133
aF0.5001794205409081
aF1.0470647486999398
aF0.9271000806272309
aF1.2360109705407591
aF1.2078657626133356
aF1.2369489811184533
aF1.9656256004094748
aF0.690820964915805
aF1.8336000096631346
aF0.6648067054327063
aF1.0469433357321694
aF1.8058126083449093
aF1.797120795648302
aF0.5610538084706062
aF1.2388264984337032
aa(lp5
F1.6281879424839352
aF0.5038656305093957
aF1.7423539918346822
aF1.5781761749304337
aF1.7951070279898014
aF1.5805030343075832
aF1.1321854163581049
aF1.742287880191193
aF1.8821468575695137
aF1.3393668956449765
aF1.7802583817972133
aF1.5686678601052622
aF1.2706730667371509
aF0.5001794205409081
aF1.0470647486999398
aF1.4061233797002957
aF1.2360109705407591
aF1.5704403005948628
aF1.2369489811184533
aF1.3428045304636256
aF1.9656256004094748
aF1.104382763378497
aF1.3787257317637447
aF1.463452636416571
aF0.690820964915805
aF1.8336000096631346
aF1.4786524118725848
aF0.6648067054327063
aF1.0469433357321694
aF1.6450191236715996
aF1.8058126083449093
aF1.797120795648302
aF1.5420654432541214
aF0.6113551755564245
aF1.0314064555878417
aF0.5610538084706062
aF1.5515411462554238
aF1.2388264984337032
aa(lp6
F0.5038656305093957
aF1.7423539918346822
aF1.7951070279898014
aF1.742287880191193
aF1.8821468575695137
aF1.3393668956449765
aF1.7802583817972133
aF0.7862588981115827
aF1.5686678601052622
aF0.5001794205409081
aF0.9271000806272309
aF1.4061233797002957
aF1.2832459035207977
aF1.5704403005948628
aF1.2938558650663339
aF1.3428045304636256
aF0.8975411269334865
aF1.9656256004094748
aF1.3787257317637447
aF0.690820964915805
aF1.8336000096631346
aF0.8583599556742921
aF1.4786524118725848
aF0.6648067054327063
aF0.7353681503144913
aF0.7657205085229644
aF1.8058126083449093
aF1.797120795648302
aF0.8773412970717329
aF0.6113551755564245
aF0.5610538084706062
aa(lp7
I10
aI32
aI10
aI10
aI12
aI21
aI11
aI13
aI12
aI13
aI11
aI13
aI12
aI18
aI15
aI12
aI11
aI20
aI19
aI11
aI22
aI21
aI10
aI12
aI18
aI11
aI26
aI16
aI11
aa(lp8
I21
aI17
aI13
aI14
aI13
aI18
aI20
aI19
aI22
aI21
aI12
aI18
aa(lp9
I10
aI10
aI10
aI14
aI13
aI16
aI13
aI14
aI13
aI15
aI11
aI20
aI16
aI10
aI12
aI11
aI16
aI11
aI13
aa(lp10
(lp11
I10
aI9
aI14
aI10
aI9
aI9
aI32
aI16
aI17
aI13
aI14
aI13
aI9
aI23
aI9
aI24
aI16
aI9
aI9
aI29
aI13
aa(lp12
I4
aI4
aI3
aI4
aI4
aI4
aI1
aI2
aI3
aI2
aI2
aI2
aI4
aI1
aI4
aI1
aI2
aI4
aI4
aI1
aI2
aaa(lp13
(lp14
I10
aI32
aI10
aI10
aI9
aI10
aI14
aI10
aI9
aI12
aI9
aI11
aI13
aI32
aI16
aI12
aI13
aI11
aI13
aI12
aI9
aI15
aI12
aI11
aI23
aI9
aI11
aI24
aI16
aI10
aI9
aI9
aI11
aI26
aI16
aI29
aI11
aI13
aa(lp15
I4
aI1
aI4
aI4
aI4
aI4
aI4
aI4
aI4
aI4
aI4
aI4
aI2
aI1
aI2
aI4
aI2
aI4
aI2
aI4
aI4
aI4
aI4
aI4
aI1
aI4
aI4
aI1
aI2
aI4
aI4
aI4
aI4
aI1
aI2
aI1
aI4
aI2
aaa(lp16
(lp17
I32
aI10
aI9
aI10
aI9
aI12
aI9
aI21
aI11
aI32
aI17
aI12
aI13
aI11
aI13
aI12
aI18
aI9
aI12
aI23
aI9
aI19
aI11
aI24
aI22
aI21
aI9
aI9
aI18
aI26
aI29
aa(lp18
I1
aI2
aI1
aI2
aI2
aI2
aI1
aI1
aI2
aI1
aI1
aI2
aI2
aI2
aI2
aI2
aI1
aI2
aI2
aI1
aI2
aI1
aI2
aI1
aI1
aI1
aI2
aI2
aI1
aI1
aI1
aaa.