(lp0
(lp1
I15
aI15
aI15
aI15
aI15
aI15
aI15
aI15
aI15
aI15
aI15
aI15
aI15
aI15
aI15
aI15
aI15
aI15
aI15
aI15
aa(lp2
F1.9333333333333333
aF2.1333333333333333
aF1.8666666666666667
aF1.7333333333333334
aF1.8
aF2.0
aF1.6
aF1.9333333333333333
aF2.066666666666667
aF1.8666666666666667
aF1.9333333333333333
aF1.9333333333333333
aF1.8666666666666667
aF2.1333333333333333
aF1.9333333333333333
aF1.8666666666666667
aF1.8666666666666667
aF2.0
aF1.8666666666666667
aF2.0
aa(lp3
F173.827
aF186.408
aF156.356
aF102.392
aF149.363
aF260.63
aF84.133
aF152.46699999999998
aF245.066
aF104.927
aF208.15
aF193.479
aF202.73499999999999
aF328.719
aF313.658
aF171.632
aF159.215
aF374.526
aF157.091
aF260.865
aa(lp4
F111.44800000000001
aF39.841
aF35.867999999999995
aF73.97800000000001
aF38.242
aF39.911
aF76.286
aF39.543
aF112.08
aF38.644999999999996
aF38.497
aF112.635
aF39.763
aF37.442
aF37.972
aF38.248999999999995
aF38.491
aF37.608000000000004
aF37.418
aaI1
aI0
a(lp5
I3
aa.