(lp0
(lp1
I15
aI15
aI15
aI15
aI15
aI15
aI15
aI15
aI15
aI15
aI15
aI15
aI15
aI15
aI15
aI15
aI15
aI15
aI15
aI15
aa(lp2
F7.066666666666666
aF7.066666666666666
aF7.066666666666666
aF7.066666666666666
aF7.066666666666666
aF7.066666666666666
aF7.066666666666666
aF7.066666666666666
aF7.066666666666666
aF7.066666666666666
aF7.066666666666666
aF7.066666666666666
aF7.066666666666666
aF7.066666666666666
aF7.066666666666666
aF7.066666666666666
aF7.066666666666666
aF7.066666666666666
aF7.066666666666666
aF7.066666666666666
aa(lp3
F316.57
aF323.03
aF321.72
aF308.541
aF316.988
aF321.129
aF357.344
aF329.004
aF324.092
aF313.722
aF321.57099999999997
aF327.42900000000003
aF325.325
aF316.744
aF322.82
aF329.27
aF318.772
aF323.358
aF320.375
aF321.315
aa(lp4
F448.60499999999996
aF453.9290000000001
aF447.743
aF451.43999999999994
aF449.69899999999996
aF449.2729999999999
aF455.856
aF452.49299999999994
aF452.8260000000001
aF449.555
aF453.31
aF449.08
aF448.574
aF446.613
aF451.232
aF449.96900000000005
aF455.035
aF446.66600000000005
aF447.98900000000003
aF447.87799999999993
aaI0
aI0
a(lp5
a.