(lp0
(lp1
I16
aI16
aI16
aI16
aI16
aI16
aI16
aI16
aI16
aI16
aI16
aI16
aI16
aI16
aI16
aI16
aI16
aI16
aI16
aI16
aa(lp2
F41.875
aF41.875
aF41.875
aF41.875
aF41.875
aF41.875
aF41.875
aF41.875
aF41.875
aF41.875
aF41.875
aF41.875
aF41.875
aF41.875
aF41.875
aF41.875
aF41.875
aF41.875
aF41.875
aF41.875
aa(lp3
F124.09100000000001
aF122.144
aF123.147
aF123.878
aF122.634
aF122.151
aF126.081
aF123.447
aF120.28999999999999
aF123.03
aF124.33
aF122.75999999999999
aF121.298
aF127.17800000000001
aF123.959
aF127.713
aF122.709
aF124.459
aF124.015
aF123.68700000000001
aa(lp4
F42.311
aF42.47
aF42.717999999999996
aF42.467
aF42.622
aF42.829
aF43.232
aF42.439
aF41.809
aF42.842
aF42.61
aF42.159
aF42.664
aF42.882000000000005
aF42.677
aF42.175
aF42.689
aF43.406
aF42.673
aF42.509
aaI0
aI0
a(lp5
aF0.001
a.