(lp0
(lp1
F0.9234092782042199
aF1.462666256546632
aF0.6771143428271849
aF0.9887743373088622
aF1.344312503064765
aF1.660239446203302
aF1.091702698625
aF1.3408877661329854
aF1.6722395384042819
aF1.030863866201082
aF0.7324216617867754
aF1.4455604575271088
aF1.2138828268950859
aF0.6931840491463719
aF1.469791161151607
aF1.6401322673685337
aF0.599805783616858
aF0.8370771839678208
aF0.785935038854502
aF1.321004465889595
aF0.9020234376829317
aF0.8529839711327167
aF1.6381018523762831
aF1.0102658821010602
aa(lp2
F0.9234092782042199
aF0.9887743373088622
aF0.7324216617867754
aF1.2138828268950859
aF0.599805783616858
aF0.8370771839678208
aF0.785935038854502
aF1.321004465889595
aF0.8529839711327167
aa(lp3
F1.6880738211786448
aF0.9887743373088622
aF1.091702698625
aF1.030863866201082
aF1.2138828268950859
aF0.8370771839678208
aF1.200633748776
aF1.321004465889595
aF0.9020234376829317
aa(lp4
F1.9899251601422727
aF1.6880738211786448
aF0.6093759658975118
aF1.7300033384732827
aF1.7119875115253629
aF1.9638819497831763
aF0.6208291384592485
aF1.696473792052736
aF1.4982056097603091
aF1.4207688719140117
aF0.5356328426762873
aF0.539194983361592
aF0.514076674961391
aF1.8547289937212652
aF1.687122320085702
aF0.5457609152473311
aF1.7196780215671956
aF0.6551413008686169
aF1.4099842955084108
aF1.900655497535476
aF1.9979246402093132
aF1.200633748776
aF0.5817257400115992
aF1.2295485617301594
aF1.2383177646810548
aF0.930884877278878
aa(lp5
F1.9899251601422727
aF1.6880738211786448
aF0.6093759658975118
aF1.462666256546632
aF0.6771143428271849
aF1.7300033384732827
aF1.7119875115253629
aF1.9638819497831763
aF0.6208291384592485
aF1.696473792052736
aF1.344312503064765
aF1.4982056097603091
aF1.660239446203302
aF1.4207688719140117
aF1.091702698625
aF1.3408877661329854
aF0.5356328426762873
aF1.6722395384042819
aF1.030863866201082
aF0.539194983361592
aF0.514076674961391
aF1.8547289937212652
aF1.4455604575271088
aF1.687122320085702
aF0.5457609152473311
aF1.7196780215671956
aF0.6931840491463719
aF1.469791161151607
aF1.6401322673685337
aF0.6551413008686169
aF1.4099842955084108
aF1.900655497535476
aF1.9979246402093132
aF1.200633748776
aF0.5817257400115992
aF0.9020234376829317
aF1.6381018523762831
aF1.2295485617301594
aF1.2383177646810548
aF0.930884877278878
aF1.0102658821010602
aa(lp6
F1.9899251601422727
aF0.9234092782042199
aF0.6093759658975118
aF1.462666256546632
aF0.6771143428271849
aF1.7300033384732827
aF1.7119875115253629
aF1.9638819497831763
aF0.6208291384592485
aF1.696473792052736
aF1.344312503064765
aF1.4982056097603091
aF1.660239446203302
aF1.4207688719140117
aF1.3408877661329854
aF0.5356328426762873
aF1.6722395384042819
aF0.539194983361592
aF0.514076674961391
aF1.8547289937212652
aF0.7324216617867754
aF1.4455604575271088
aF1.687122320085702
aF0.5457609152473311
aF1.7196780215671956
aF0.6931840491463719
aF1.469791161151607
aF1.6401322673685337
aF0.6551413008686169
aF0.599805783616858
aF1.4099842955084108
aF1.900655497535476
aF1.9979246402093132
aF0.785935038854502
aF0.5817257400115992
aF0.8529839711327167
aF1.6381018523762831
aF1.2295485617301594
aF1.2383177646810548
aF0.930884877278878
aF1.0102658821010602
aa(lp7
I18
aI11
aI24
aI16
aI12
aI10
aI15
aI12
aI10
aI16
aI22
aI11
aI13
aI23
aI11
aI10
aI27
aI19
aI21
aI12
aI18
aI19
aI10
aI16
aa(lp8
I18
aI16
aI22
aI13
aI27
aI19
aI21
aI12
aI19
aa(lp9
I10
aI16
aI15
aI16
aI13
aI19
aI14
aI12
aI18
aa(lp10
(lp11
I8
aI10
aI26
aI10
aI10
aI9
aI26
aI10
aI11
aI12
aI30
aI30
aI31
aI9
aI10
aI29
aI10
aI25
aI12
aI9
aI8
aI14
aI28
aI13
aI13
aI17
aa(lp12
I4
aI4
aI1
aI4
aI4
aI4
aI1
aI4
aI2
aI2
aI1
aI1
aI1
aI4
aI4
aI1
aI4
aI1
aI2
aI4
aI4
aI2
aI1
aI2
aI2
aI2
aaa(lp13
(lp14
I8
aI10
aI26
aI11
aI24
aI10
aI10
aI9
aI26
aI10
aI12
aI11
aI10
aI12
aI15
aI12
aI30
aI10
aI16
aI30
aI31
aI9
aI11
aI10
aI29
aI10
aI23
aI11
aI10
aI25
aI12
aI9
aI8
aI14
aI28
aI18
aI10
aI13
aI13
aI17
aI16
aa(lp15
I4
aI4
aI1
aI4
aI1
aI4
aI4
aI4
aI1
aI4
aI4
aI4
aI4
aI4
aI4
aI4
aI1
aI4
aI2
aI1
aI1
aI4
aI4
aI4
aI1
aI4
aI2
aI4
aI4
aI2
aI4
aI4
aI4
aI2
aI1
aI2
aI4
aI2
aI2
aI2
aI2
aaa(lp16
(lp17
I8
aI18
aI26
aI11
aI24
aI10
aI10
aI9
aI26
aI10
aI12
aI11
aI10
aI12
aI12
aI30
aI10
aI30
aI31
aI9
aI22
aI11
aI10
aI29
aI10
aI23
aI11
aI10
aI25
aI27
aI12
aI9
aI8
aI21
aI28
aI19
aI10
aI13
aI13
aI17
aI16
aa(lp18
I1
aI1
aI1
aI3
aI1
aI2
aI2
aI2
aI1
aI2
aI2
aI2
aI2
aI2
aI2
aI1
aI2
aI1
aI1
aI2
aI2
aI2
aI2
aI1
aI2
aI1
aI3
aI2
aI1
aI1
aI2
aI2
aI1
aI1
aI1
aI1
aI2
aI1
aI1
aI1
aI3
aaa.