(lp0
(lp1
I15
aI15
aI15
aI15
aI15
aI15
aI15
aI15
aI15
aI15
aI15
aI15
aI15
aI15
aI15
aI15
aI15
aI15
aI15
aI15
aI15
aI15
aI15
aI15
aI15
aI15
aI15
aI15
aI15
aI15
aI15
aI15
aI15
aI15
aI15
aI15
aI15
aI15
aI15
aI15
aI15
aI15
aI15
aI15
aI15
aI15
aI15
aI15
aI15
aI15
aa(lp2
F3.1333333333333333
aF3.1333333333333333
aF3.1333333333333333
aF3.1333333333333333
aF3.1333333333333333
aF3.1333333333333333
aF3.1333333333333333
aF3.1333333333333333
aF3.1333333333333333
aF3.1333333333333333
aF3.1333333333333333
aF3.1333333333333333
aF3.1333333333333333
aF3.1333333333333333
aF3.1333333333333333
aF3.1333333333333333
aF3.1333333333333333
aF3.1333333333333333
aF3.1333333333333333
aF3.1333333333333333
aF3.1333333333333333
aF3.1333333333333333
aF3.1333333333333333
aF3.1333333333333333
aF3.1333333333333333
aF3.1333333333333333
aF3.1333333333333333
aF3.1333333333333333
aF3.1333333333333333
aF3.1333333333333333
aF3.1333333333333333
aF3.1333333333333333
aF3.1333333333333333
aF3.1333333333333333
aF3.1333333333333333
aF3.1333333333333333
aF3.1333333333333333
aF3.1333333333333333
aF3.1333333333333333
aF3.1333333333333333
aF3.1333333333333333
aF3.1333333333333333
aF3.1333333333333333
aF3.1333333333333333
aF3.1333333333333333
aF3.1333333333333333
aF3.1333333333333333
aF3.1333333333333333
aF3.1333333333333333
aF3.1333333333333333
aa(lp3
F611.375
aF612.7810000000001
aF573.877
aF567.364
aF568.332
aF603.0830000000001
aF602.434
aF571.1220000000001
aF595.7529999999999
aF565.357
aF570.882
aF568.659
aF555.389
aF606.333
aF563.7760000000001
aF607.11
aF604.746
aF624.962
aF601.217
aF608.428
aF610.012
aF600.3870000000001
aF594.236
aF552.9490000000001
aF568.645
aF599.631
aF576.067
aF591.328
aF595.658
aF571.718
aF594.837
aF602.814
aF597.986
aF567.917
aF565.6719999999999
aF576.333
aF576.576
aF601.932
aF596.615
aF566.349
aF595.368
aF569.174
aF590.562
aF569.665
aF596.6120000000001
aF580.292
aF577.0509999999999
aF571.592
aF569.365
aF615.0
aa(lp4
F146.201
aF143.913
aF145.65
aF147.29999999999998
aF147.12800000000001
aF149.809
aF147.311
aF147.72299999999998
aF153.616
aF154.99099999999999
aF149.44
aF147.855
aF145.953
aF148.04700000000003
aF145.741
aF148.649
aF146.258
aF167.251
aF151.905
aF150.37
aF147.97
aF145.88
aF149.959
aF147.777
aF150.007
aF146.124
aF139.79500000000002
aF147.76
aF140.51500000000001
aF149.87300000000002
aF145.406
aF140.31199999999998
aF149.26500000000001
aF146.404
aF147.418
aF149.60999999999999
aF146.118
aF146.401
aF150.218
aF149.35999999999999
aF147.091
aF149.838
aF144.851
aF148.19
aF136.509
aF149.204
aF144.464
aF138.936
aF151.40400000000002
aF150.06
aa(lp5
F34.534
aF34.388000000000005
aF34.293
aF33.865
aF33.482
aF34.605
aF34.808
aF34.92
aF34.826
aF34.352000000000004
aF34.327999999999996
aF35.035999999999994
aF35.138999999999996
aF34.391999999999996
aF34.882000000000005
aF34.89
aF35.107
aF35.006
aF35.282000000000004
aF35.305
aF35.411
aF34.558
aF39.667
aF34.641999999999996
aF34.496
aF36.306
aF35.278999999999996
aF34.726
aF34.590999999999994
aF35.342999999999996
aF33.729
aF34.667
aF34.084
aF34.579
aF34.495
aF34.97
aF34.866
aF34.554
aF34.736999999999995
aF34.736000000000004
aF34.403000000000006
aF36.077999999999996
aF35.431999999999995
aF34.583000000000006
aF34.1
aF34.563
aF35.671
aF35.005
aF35.619
aF34.221000000000004
aa(lp6
F34.879
aF39.072
aF34.652
aF34.044
aF34.092
aF34.867000000000004
aF34.753
aF34.568000000000005
aF34.547000000000004
aF34.887
aF34.715999999999994
aF34.653000000000006
aF34.5
aF34.494
aF34.047000000000004
aF36.115
aF36.23500000000001
aF35.242999999999995
aF33.768
aF35.253
aF34.183
aF41.255
aF33.955
aF34.635
aF35.031
aF34.089
aF34.884
aF34.391999999999996
aF35.235
aF34.645
aF34.035000000000004
aF34.847
aF34.282
aF34.733
aF34.395
aF34.397
aF34.126999999999995
aF34.292
aF34.425999999999995
aF34.83
aF35.066
aF34.62
aF34.643
aF34.371
aF34.515
aF34.581
aF34.872
aF34.364
aF35.345
aF35.268
aa(lp7
I0
aI0
aI0
aI0
aI0
aI0
aI0
aI0
aI0
aI0
aI0
aI0
aI0
aI0
aI0
aI0
aI0
aI0
aI0
aI0
aI0
aI0
aI0
aI0
aI0
aI0
aI0
aI0
aI0
aI0
aI0
aI0
aI0
aI0
aI0
aI0
aI0
aI0
aI0
aI0
aI0
aI0
aI0
aI0
aI0
aI0
aI0
aI0
aI0
aI0
aa.