(lp0
(lp1
F1.6560461749946802
aF1.2131251415889168
aF1.4401853107646485
aF0.7180580395718222
aF1.2963963170381416
aF1.6528194150282922
aF0.7954181590023259
aF1.1920078880471252
aF1.2174101455263062
aF1.0392400274705786
aF1.1791915048054435
aF1.0308500338585382
aF1.0307145251384047
aa(lp2
I10
aI13
aI11
aI22
aI13
aI10
aI20
aI14
aI13
aI16
aI14
aI16
aI16
aa(lp3
F0.8279625342527306
aF1.2963963170381416
aa(lp4
I20
aI13
aa(lp5
F0.8171496582307202
aF1.9497347771241567
aF0.6413627844873045
aF1.691639806892607
aF0.8279625342527306
aF0.8634490025388449
aF1.8910962333275172
aF0.6445171140214636
aF0.6590743583525174
aF1.8816174726786272
aF1.8594813619739465
aF0.8732944241110987
aF1.4639963411640564
aF1.76234557574734
aF0.6412099819260317
aF0.5859972620383274
aF0.9835115238296972
aF0.9208694102708815
aF1.950731635859179
aF0.9597953469961011
aF0.5941679184230411
aF1.4810844115192192
aF1.526506770292737
aF1.454677224583283
aF1.3691141429169185
aF1.1610366306922915
aF1.2035935047230626
aF0.715327835244042
aF1.267869673456958
aF1.7016124680676317
aF0.8496300885169514
aF0.7773231906245391
aF1.3791488427592833
aF0.8766487539690289
aF1.9184260479638118
aF0.9648761549514295
aF1.5330172980497188
aF1.8150170958994614
aF0.8826648171499629
aF1.4988824802825906
aF1.5018647223885815
aF0.7369083952000395
aF1.7945622606748475
aF1.6998895737479156
aF1.266834591710981
aF0.9454228538359679
aF1.1218940772957098
aa(lp6
(lp7
I20
aI9
aI25
aI10
aI20
aI19
aI9
aI25
aI24
aI9
aI9
aI19
aI11
aI9
aI25
aI27
aI17
aI18
aI9
aI17
aI27
aI11
aI11
aI11
aI12
aI14
aI14
aI23
aI13
aI10
aI19
aI21
aI12
aI18
aI9
aI17
aI11
aI9
aI18
aI11
aI11
aI22
aI9
aI10
aI13
aI17
aI15
aa(lp8
I3
aI4
aI3
aI4
aI3
aI3
aI4
aI3
aI3
aI4
aI4
aI3
aI3
aI4
aI3
aI1
aI3
aI3
aI4
aI3
aI3
aI3
aI2
aI3
aI3
aI3
aI2
aI3
aI2
aI4
aI3
aI3
aI2
aI3
aI4
aI3
aI2
aI4
aI3
aI2
aI2
aI1
aI4
aI4
aI2
aI3
aI1
aaa(lp9
F0.8171496582307202
aF1.9497347771241567
aF0.6413627844873045
aF1.691639806892607
aF0.8634490025388449
aF1.8910962333275172
aF1.6560461749946802
aF0.6445171140214636
aF0.6590743583525174
aF1.8816174726786272
aF1.2131251415889168
aF1.8594813619739465
aF0.8732944241110987
aF1.4639963411640564
aF1.4401853107646485
aF1.76234557574734
aF0.6412099819260317
aF0.7180580395718222
aF0.5859972620383274
aF0.9835115238296972
aF0.9208694102708815
aF1.950731635859179
aF0.9597953469961011
aF1.6528194150282922
aF0.5941679184230411
aF1.4810844115192192
aF1.526506770292737
aF1.454677224583283
aF1.3691141429169185
aF1.1610366306922915
aF1.2035935047230626
aF0.715327835244042
aF1.267869673456958
aF1.7016124680676317
aF0.8496300885169514
aF0.7954181590023259
aF0.7773231906245391
aF1.3791488427592833
aF0.8766487539690289
aF1.9184260479638118
aF0.9648761549514295
aF1.5330172980497188
aF1.8150170958994614
aF0.8826648171499629
aF1.4988824802825906
aF1.5018647223885815
aF0.7369083952000395
aF1.1920078880471252
aF1.7945622606748475
aF1.6998895737479156
aF1.266834591710981
aF1.2174101455263062
aF0.9454228538359679
aF1.0392400274705786
aF1.1791915048054435
aF1.1218940772957098
aF1.0308500338585382
aF1.0307145251384047
aa(lp10
(lp11
I20
aI9
aI25
aI10
aI19
aI9
aI10
aI25
aI24
aI9
aI13
aI9
aI19
aI11
aI11
aI9
aI25
aI22
aI27
aI17
aI18
aI9
aI17
aI10
aI27
aI11
aI11
aI11
aI12
aI14
aI14
aI23
aI13
aI10
aI19
aI20
aI21
aI12
aI18
aI9
aI17
aI11
aI9
aI18
aI11
aI11
aI22
aI14
aI9
aI10
aI13
aI13
aI17
aI16
aI14
aI15
aI16
aI16
aa(lp12
I3
aI4
aI1
aI4
aI3
aI4
aI4
aI1
aI2
aI4
aI3
aI4
aI3
aI4
aI4
aI4
aI1
aI2
aI1
aI3
aI3
aI4
aI3
aI4
aI3
aI4
aI4
aI4
aI4
aI2
aI2
aI2
aI3
aI4
aI3
aI3
aI2
aI4
aI3
aI4
aI3
aI4
aI4
aI3
aI4
aI4
aI2
aI3
aI4
aI4
aI3
aI3
aI2
aI2
aI2
aI4
aI2
aI2
aaa.