(lp0
(lp1
F0.6512610865430323
aF1.09011748367349
aF1.24636443326361
aF0.5093905074803033
aF1.1049028149886453
aF0.9322416488974397
aF0.8567859537946609
aF0.7371323078108841
aF0.8009698376231247
aF1.0292914977104377
aF0.6511259368221025
aF1.1256198495923546
aF0.7656222645011996
aF1.205663322120317
aF0.6623717262099046
aF0.7435380603301431
aF0.6453248179349618
aF0.7797087524556091
aF1.0807276537374735
aF0.5334266118389711
aF0.9516285438978622
aF0.5165419176123067
aF1.129515536521014
aF0.8360916628888115
aF0.6219088388981093
aF0.9316031290607926
aF0.8268693657261912
aF0.5919088294164736
aa(lp2
I32
aI19
aI17
aI40
aI19
aI22
aI24
aI28
aI26
aI20
aI32
aI19
aI27
aI17
aI31
aI28
aI32
aI27
aI19
aI39
aI22
aI40
aI19
aI25
aI33
aI22
aI25
aI35
aa(lp3
F0.6512610865430323
aF0.6997475921601835
aF0.5093905074803033
aF1.0446575105700162
aF0.9322416488974397
aF0.8567859537946609
aF0.7371323078108841
aF0.8009698376231247
aF1.0292914977104377
aF1.1678532412016749
aF1.126643461454029
aF1.2538829952517523
aF0.6511259368221025
aF0.7656222645011996
aF0.6623717262099046
aF0.9798668297175539
aF0.5334266118389711
aF1.1033775576584306
aF1.1343735887719322
aF1.1444442135160464
aF0.5165419176123067
aF1.129515536521014
aF0.8360916628888115
aF0.6219088388981093
aF1.0202756324278304
aF0.5828304887812962
aF0.8268693657261912
aF1.1292200216286408
aa(lp4
I32
aI30
aI40
aI20
aI22
aI24
aI28
aI26
aI20
aI18
aI19
aI17
aI32
aI27
aI31
aI21
aI39
aI19
aI18
aI18
aI40
aI19
aI25
aI33
aI20
aI35
aI25
aI19
aa(lp5
F1.7348710465909736
aF1.2539077496719988
aF1.193786148977435
aF1.6865655621917277
aF1.2782378013656508
aF1.5216175519723298
aF1.7172230545239935
aF0.8751226849918785
aF1.1879891288154267
aF0.6997475921601835
aF1.3549569765721852
aF1.839669549368168
aF1.7609768797125382
aF1.7946155155608232
aF1.8178846059086078
aF1.506154003059737
aF1.0446575105700162
aF1.6268983498048146
aF1.9654732857477883
aF1.8979880550773778
aF1.7315742540146866
aF1.278236098820328
aF1.5964580561891366
aF1.844596242845124
aF1.7030941134843622
aF1.65280920736597
aF1.1678532412016749
aF1.126643461454029
aF1.5675343782511297
aF1.6127463439516299
aF1.2538829952517523
aF1.9792008293311596
aF1.9760089411903516
aF1.7125183139750337
aF1.6846264984511459
aF1.4713116287933679
aF1.6997684332979204
aF1.2878404200713942
aF1.4378671297069887
aF1.6940636649013114
aF0.9798668297175539
aF1.695380549934266
aF1.1033775576584306
aF1.3531945825550404
aF1.1343735887719322
aF1.3641121915952439
aF1.7633498266840968
aF1.1444442135160464
aF1.6174885552327534
aF1.0202756324278304
aF0.5828304887812962
aF1.390997178682681
aF1.4457721941463044
aF1.9331236132412086
aF1.2872906964837179
aF1.960184195888613
aF1.6089396958478548
aF1.9324096340153383
aF1.2837470997110807
aF1.7716975461662496
aF1.8458790858936083
aF1.7195167179917943
aF1.3968064653096697
aF1.755591506547113
aF1.1292200216286408
aF1.4851691410964611
aF1.9946465616566007
aF1.733415930353885
aF1.7633967684050655
aF1.791277823119923
aF1.5373673743891318
aF1.9806952585770867
aa(lp6
(lp7
I12
aI17
aI18
aI13
aI16
aI14
aI12
aI24
aI18
aI30
aI16
aI12
aI12
aI12
aI12
aI14
aI20
aI13
aI11
aI11
aI12
aI16
aI13
aI12
aI12
aI13
aI18
aI19
aI13
aI13
aI17
aI11
aI11
aI12
aI13
aI14
aI12
aI16
aI15
aI13
aI21
aI12
aI19
aI16
aI18
aI15
aI12
aI18
aI13
aI20
aI35
aI15
aI15
aI11
aI16
aI11
aI13
aI11
aI16
aI12
aI12
aI12
aI15
aI12
aI19
aI14
aI11
aI12
aI12
aI12
aI14
aI11
aa(lp8
I4
aI1
aI3
aI2
aI3
aI3
aI2
aI3
aI3
aI3
aI3
aI2
aI4
aI2
aI2
aI3
aI3
aI3
aI4
aI4
aI3
aI3
aI3
aI4
aI3
aI3
aI3
aI3
aI3
aI3
aI3
aI4
aI4
aI2
aI3
aI3
aI3
aI3
aI3
aI3
aI3
aI3
aI3
aI3
aI2
aI3
aI4
aI3
aI3
aI3
aI3
aI3
aI3
aI4
aI3
aI4
aI3
aI4
aI3
aI4
aI4
aI3
aI3
aI4
aI3
aI3
aI4
aI3
aI4
aI4
aI3
aI4
aaa(lp9
F1.7348710465909736
aF1.09011748367349
aF1.2539077496719988
aF1.193786148977435
aF1.6865655621917277
aF1.2782378013656508
aF1.24636443326361
aF1.5216175519723298
aF1.7172230545239935
aF0.8751226849918785
aF1.1879891288154267
aF1.3549569765721852
aF1.839669549368168
aF1.7609768797125382
aF1.7946155155608232
aF1.8178846059086078
aF1.506154003059737
aF1.1049028149886453
aF1.6268983498048146
aF1.9654732857477883
aF1.8979880550773778
aF1.7315742540146866
aF1.278236098820328
aF1.5964580561891366
aF1.844596242845124
aF1.7030941134843622
aF1.65280920736597
aF1.5675343782511297
aF1.6127463439516299
aF1.9792008293311596
aF1.1256198495923546
aF1.9760089411903516
aF1.205663322120317
aF1.7125183139750337
aF1.6846264984511459
aF1.4713116287933679
aF1.6997684332979204
aF0.7435380603301431
aF0.6453248179349618
aF0.7797087524556091
aF1.2878404200713942
aF1.4378671297069887
aF1.0807276537374735
aF1.6940636649013114
aF1.695380549934266
aF1.3531945825550404
aF0.9516285438978622
aF1.3641121915952439
aF1.7633498266840968
aF1.6174885552327534
aF1.390997178682681
aF1.4457721941463044
aF1.9331236132412086
aF1.2872906964837179
aF0.9316031290607926
aF1.960184195888613
aF1.6089396958478548
aF1.9324096340153383
aF1.2837470997110807
aF1.7716975461662496
aF1.8458790858936083
aF1.7195167179917943
aF0.5919088294164736
aF1.3968064653096697
aF1.755591506547113
aF1.4851691410964611
aF1.9946465616566007
aF1.733415930353885
aF1.7633967684050655
aF1.791277823119923
aF1.5373673743891318
aF1.9806952585770867
aa(lp10
(lp11
I12
aI19
aI17
aI18
aI13
aI16
aI17
aI14
aI12
aI24
aI18
aI16
aI12
aI12
aI12
aI12
aI14
aI19
aI13
aI11
aI11
aI12
aI16
aI13
aI12
aI12
aI13
aI13
aI13
aI11
aI19
aI11
aI17
aI12
aI13
aI14
aI12
aI28
aI32
aI27
aI16
aI15
aI19
aI13
aI12
aI16
aI22
aI15
aI12
aI13
aI15
aI15
aI11
aI16
aI22
aI11
aI13
aI11
aI16
aI12
aI12
aI12
aI35
aI15
aI12
aI14
aI11
aI12
aI12
aI12
aI14
aI11
aa(lp12
I4
aI3
aI1
aI3
aI4
aI3
aI2
aI4
aI4
aI3
aI4
aI4
aI4
aI4
aI4
aI4
aI4
aI3
aI4
aI4
aI4
aI4
aI2
aI4
aI4
aI4
aI4
aI4
aI4
aI4
aI3
aI4
aI3
aI4
aI4
aI4
aI4
aI3
aI3
aI3
aI4
aI4
aI2
aI4
aI4
aI4
aI3
aI4
aI4
aI4
aI4
aI4
aI4
aI3
aI4
aI4
aI4
aI4
aI4
aI4
aI4
aI4
aI3
aI4
aI4
aI4
aI4
aI4
aI4
aI4
aI4
aI4
aaa.