(lp0
(lp1
F0.7342522420991144
aF0.5888227460130226
aF0.9117474837952027
aF0.6966463720580588
aF0.8332039550854999
aF1.1523038933444438
aF0.9037751241902359
aF0.9112957557883362
aF0.5028649663793099
aF0.8264608336277961
aF0.5477584996649736
aF1.1035840599855244
aF0.6578717068095272
aF0.5496619926126172
aF0.553172411693494
aF0.7816175090173114
aF0.844362140564332
aF0.847654153825441
aF0.9933533693901422
aF0.901093637053569
aF0.6788962831687024
aa(lp2
I28
aI35
aI23
aI30
aI25
aI18
aI23
aI23
aI41
aI25
aI38
aI19
aI31
aI37
aI37
aI27
aI25
aI24
aI21
aI23
aI30
aa(lp3
F0.7342522420991144
aF0.5888227460130226
aF0.9117474837952027
aF0.6966463720580588
aF0.8332039550854999
aF0.9037751241902359
aF0.6575143912696003
aF0.9112957557883362
aF1.0768809897683729
aF0.522557776844206
aF0.5028649663793099
aF0.8264608336277961
aF1.1035840599855244
aF0.6578717068095272
aF0.553172411693494
aF0.844362140564332
aF0.847654153825441
aF0.6788962831687024
aa(lp4
I28
aI35
aI23
aI30
aI25
aI23
aI31
aI23
aI19
aI39
aI41
aI25
aI19
aI31
aI37
aI25
aI24
aI30
aa(lp5
F1.894485865009814
aF1.2982986461189168
aF1.623980213781508
aF1.9025775195611365
aF0.6575143912696003
aF1.3658468920838147
aF1.2331005001197792
aF1.4000368247321988
aF1.225176235893179
aF1.169777975714686
aF1.0768809897683729
aF0.522557776844206
aF1.876365358750271
aF0.665738778101685
aF1.4086354815740196
aF1.2003868805268638
aF1.5694882551601905
aF1.962805647844952
aF1.8482394209183823
aF1.5733296280526425
aF1.0400350342794071
aF1.801939976304431
aF1.7860416625740068
aF1.0490828312443292
aF1.9868900283728057
aF1.593542344557065
aF1.6301846586348439
aF1.2634212886518927
aF0.6321027346846153
aa(lp6
(lp7
I11
aI16
aI13
aI11
aI31
aI15
aI17
aI15
aI17
aI18
aI19
aI39
aI11
aI31
aI15
aI17
aI13
aI11
aI12
aI13
aI20
aI12
aI12
aI20
aI11
aI13
aI13
aI17
aI33
aa(lp8
I4
aI3
aI4
aI4
aI3
aI2
aI2
aI2
aI2
aI3
aI2
aI2
aI4
aI3
aI2
aI3
aI4
aI4
aI4
aI4
aI2
aI4
aI4
aI4
aI4
aI4
aI4
aI3
aI4
aaa(lp9
F1.894485865009814
aF1.2982986461189168
aF1.623980213781508
aF1.1523038933444438
aF1.9025775195611365
aF1.3658468920838147
aF1.2331005001197792
aF1.4000368247321988
aF1.225176235893179
aF1.169777975714686
aF1.876365358750271
aF0.5477584996649736
aF0.665738778101685
aF1.4086354815740196
aF1.2003868805268638
aF0.5496619926126172
aF1.5694882551601905
aF1.962805647844952
aF1.8482394209183823
aF0.7816175090173114
aF0.9933533693901422
aF1.5733296280526425
aF1.0400350342794071
aF1.801939976304431
aF1.7860416625740068
aF1.0490828312443292
aF0.901093637053569
aF1.9868900283728057
aF1.593542344557065
aF1.6301846586348439
aF1.2634212886518927
aF0.6321027346846153
aa(lp10
(lp11
I11
aI16
aI13
aI18
aI11
aI15
aI17
aI15
aI17
aI18
aI11
aI38
aI31
aI15
aI17
aI37
aI13
aI11
aI12
aI27
aI21
aI13
aI20
aI12
aI12
aI20
aI23
aI11
aI13
aI13
aI17
aI33
aa(lp12
I4
aI2
aI4
aI2
aI4
aI4
aI2
aI4
aI3
aI3
aI4
aI3
aI3
aI4
aI3
aI3
aI4
aI4
aI4
aI3
aI3
aI4
aI3
aI4
aI4
aI4
aI2
aI4
aI4
aI4
aI2
aI4
aaa.