(lp0
(lp1
I14
aI14
aI14
aI14
aI14
aI14
aI14
aI14
aI14
aI14
aI14
aI14
aI14
aI14
aI14
aI14
aI14
aI14
aI14
aI14
aI14
aI14
aI14
aI14
aI14
aI14
aI14
aI14
aI14
aI14
aI14
aI14
aI14
aI14
aI14
aI14
aI14
aI14
aI14
aI14
aI14
aI14
aI14
aI14
aI14
aI14
aI14
aI14
aI14
aI14
aI14
aI14
aI14
aI14
aI14
aI14
aI14
aI14
aI14
aI14
aI14
aI14
aI14
aI14
aI14
aI14
aI14
aI14
aI14
aI14
aI14
aI14
aI14
aI14
aI14
aI14
aI14
aI14
aI14
aI14
aI14
aI14
aI14
aI14
aI14
aI14
aI14
aI14
aI14
aI14
aI14
aI14
aI14
aI14
aI14
aI14
aI14
aI14
aI14
aI14
aa(lp2
F4.416666666666667
aF4.416666666666667
aF4.416666666666667
aF4.416666666666667
aF4.416666666666667
aF4.416666666666667
aF4.416666666666667
aF4.416666666666667
aF4.416666666666667
aF4.416666666666667
aF4.416666666666667
aF4.416666666666667
aF4.416666666666667
aF4.416666666666667
aF4.416666666666667
aF4.416666666666667
aF4.416666666666667
aF4.416666666666667
aF4.416666666666667
aF4.416666666666667
aF4.416666666666667
aF4.416666666666667
aF4.416666666666667
aF4.416666666666667
aF4.416666666666667
aF4.416666666666667
aF4.416666666666667
aF4.416666666666667
aF4.416666666666667
aF4.416666666666667
aF4.416666666666667
aF4.416666666666667
aF4.416666666666667
aF4.5
aF4.416666666666667
aF4.416666666666667
aF4.416666666666667
aF4.416666666666667
aF4.416666666666667
aF4.416666666666667
aF4.416666666666667
aF4.416666666666667
aF4.416666666666667
aF4.416666666666667
aF4.416666666666667
aF4.5
aF4.416666666666667
aF4.416666666666667
aF4.5
aF4.416666666666667
aF4.416666666666667
aF4.416666666666667
aF4.416666666666667
aF4.416666666666667
aF4.416666666666667
aF4.416666666666667
aF4.416666666666667
aF4.416666666666667
aF4.416666666666667
aF4.416666666666667
aF4.416666666666667
aF4.416666666666667
aF4.416666666666667
aF4.416666666666667
aF4.416666666666667
aF4.416666666666667
aF4.416666666666667
aF4.416666666666667
aF4.416666666666667
aF4.416666666666667
aF4.416666666666667
aF4.416666666666667
aF4.416666666666667
aF4.416666666666667
aF4.416666666666667
aF4.416666666666667
aF4.416666666666667
aF4.416666666666667
aF4.416666666666667
aF4.416666666666667
aF4.5
aF4.416666666666667
aF4.416666666666667
aF4.416666666666667
aF4.5
aF4.416666666666667
aF4.416666666666667
aF4.416666666666667
aF4.416666666666667
aF4.416666666666667
aF4.416666666666667
aF4.416666666666667
aF4.416666666666667
aF4.416666666666667
aF4.416666666666667
aF4.416666666666667
aF4.416666666666667
aF4.416666666666667
aF4.5
aF4.416666666666667
aa(lp3
F219.64700000000002
aF258.232
aF209.21200000000002
aF262.94800000000004
aF219.418
aF225.48299999999998
aF208.02100000000002
aF212.92
aF246.361
aF217.558
aF215.527
aF217.90599999999998
aF265.264
aF217.201
aF279.929
aF214.044
aF779.982
aF274.512
aF221.748
aF215.107
aF220.218
aF219.165
aF207.811
aF221.15099999999998
aF273.012
aF219.07
aF219.992
aF216.93
aF272.733
aF217.98999999999998
aF220.022
aF222.34
aF216.678
aF278.247
aF225.562
aF220.722
aF219.271
aF218.006
aF225.61999999999998
aF225.193
aF219.368
aF223.48399999999998
aF214.739
aF218.521
aF219.34799999999998
aF281.223
aF221.215
aF216.044
aF221.978
aF219.829
aF223.37099999999998
aF281.16
aF222.219
aF217.803
aF217.34
aF229.397
aF211.675
aF221.285
aF215.705
aF218.78
aF223.53799999999998
aF212.40800000000002
aF223.73000000000002
aF215.072
aF221.26100000000002
aF220.56799999999998
aF221.81799999999998
aF219.472
aF223.42600000000002
aF221.17800000000003
aF222.037
aF221.767
aF217.68699999999998
aF210.126
aF220.821
aF218.438
aF269.36199999999997
aF225.50799999999998
aF223.473
aF224.09799999999998
aF272.74399999999997
aF285.445
aF207.421
aF213.644
aF214.911
aF217.029
aF214.73600000000002
aF221.57399999999998
aF214.844
aF219.474
aF216.59400000000002
aF214.39
aF224.613
aF216.499
aF213.291
aF275.93600000000004
aF276.323
aF217.684
aF215.305
aF221.546
aa(lp4
F78.23499999999999
aF78.932
aF79.023
aF79.005
aF80.469
aF80.66499999999999
aF80.581
aF81.15099999999998
aF79.62599999999999
aF79.358
aF78.126
aF79.31200000000001
aF80.262
aF80.73400000000001
aF79.54299999999999
aF80.422
aF80.047
aF80.24600000000001
aF79.657
aF78.577
aF79.05600000000001
aF79.52600000000001
aF80.144
aF79.173
aF79.584
aF79.083
aF80.825
aF80.026
aF79.79599999999999
aF79.874
aF79.07300000000001
aF80.696
aF78.929
aF80.594
aF79.97200000000001
aF80.279
aF80.233
aF77.899
aF80.036
aF79.93099999999998
aF79.685
aF78.22200000000001
aF344.66100000000006
aF80.789
aF78.99799999999999
aF80.28
aF78.959
aF78.888
aF82.00899999999999
aF79.602
aF79.235
aF79.85
aF79.744
aF79.88
aF78.91499999999999
aF81.09299999999999
aF80.303
aF79.25999999999999
aF83.531
aF79.59700000000001
aF81.191
aF79.0
aF80.951
aF80.346
aF79.69500000000001
aF81.355
aF78.297
aF78.848
aF81.69999999999999
aF82.69999999999999
aF78.776
aF78.15
aF80.846
aF80.707
aF81.20400000000001
aF80.291
aF78.695
aF79.964
aF79.575
aF81.251
aF83.358
aF78.326
aF79.934
aF81.892
aF81.345
aF79.39499999999998
aF79.486
aF78.79400000000001
aF79.594
aF79.101
aF79.89000000000001
aF78.195
aF80.321
aF79.835
aF77.852
aF80.47800000000001
aF80.223
aF81.2
aF80.52000000000001
aF79.00800000000001
aaI0
aI0
a(lp5
aF0.001
a.