(lp0
(lp1
I14
aI14
aI14
aI14
aI14
aI14
aI14
aI14
aI14
aI14
aI14
aI14
aI14
aI14
aI14
aI14
aI14
aI14
aI14
aI14
aI14
aI14
aI14
aI14
aI14
aI14
aI14
aI14
aI14
aI14
aI14
aI14
aI14
aI14
aI14
aI14
aI14
aI14
aI14
aI14
aI14
aI14
aI14
aI14
aI14
aI14
aI14
aI14
aI14
aI14
aI14
aI14
aI14
aI14
aI14
aI14
aI14
aI14
aI14
aI14
aI14
aI14
aI14
aI14
aI14
aI14
aI14
aI14
aI14
aI14
aI14
aI14
aI14
aI14
aI14
aI14
aI14
aI14
aI14
aI14
aI14
aI14
aI14
aI14
aI14
aI14
aI14
aI14
aI14
aI14
aI14
aI14
aI14
aI14
aI14
aI14
aI14
aI14
aI14
aI14
aa(lp2
F4.416666666666667
aF4.416666666666667
aF4.416666666666667
aF4.416666666666667
aF4.5
aF4.416666666666667
aF4.416666666666667
aF4.416666666666667
aF4.416666666666667
aF4.416666666666667
aF4.416666666666667
aF4.416666666666667
aF4.416666666666667
aF4.416666666666667
aF4.416666666666667
aF4.416666666666667
aF4.416666666666667
aF4.416666666666667
aF4.416666666666667
aF4.416666666666667
aF4.5
aF4.416666666666667
aF4.416666666666667
aF4.416666666666667
aF4.416666666666667
aF4.416666666666667
aF4.416666666666667
aF4.416666666666667
aF4.416666666666667
aF4.416666666666667
aF4.416666666666667
aF4.416666666666667
aF4.416666666666667
aF4.416666666666667
aF4.416666666666667
aF4.416666666666667
aF4.416666666666667
aF4.416666666666667
aF4.416666666666667
aF4.416666666666667
aF4.416666666666667
aF4.416666666666667
aF4.416666666666667
aF4.416666666666667
aF4.416666666666667
aF4.416666666666667
aF4.416666666666667
aF4.416666666666667
aF4.416666666666667
aF4.416666666666667
aF4.416666666666667
aF4.416666666666667
aF4.416666666666667
aF4.416666666666667
aF4.416666666666667
aF4.416666666666667
aF4.416666666666667
aF4.416666666666667
aF4.416666666666667
aF4.416666666666667
aF4.416666666666667
aF4.416666666666667
aF4.416666666666667
aF4.416666666666667
aF4.416666666666667
aF4.416666666666667
aF4.416666666666667
aF4.416666666666667
aF4.416666666666667
aF4.416666666666667
aF4.416666666666667
aF4.416666666666667
aF4.416666666666667
aF4.416666666666667
aF4.416666666666667
aF4.416666666666667
aF4.416666666666667
aF4.416666666666667
aF4.416666666666667
aF4.416666666666667
aF4.416666666666667
aF4.416666666666667
aF4.416666666666667
aF4.416666666666667
aF4.416666666666667
aF4.416666666666667
aF4.416666666666667
aF4.416666666666667
aF4.416666666666667
aF4.416666666666667
aF4.416666666666667
aF4.416666666666667
aF4.416666666666667
aF4.5
aF4.416666666666667
aF4.416666666666667
aF4.416666666666667
aF4.5
aF4.416666666666667
aF4.416666666666667
aa(lp3
F188.137
aF234.79500000000002
aF248.425
aF195.166
aF178.934
aF193.81
aF242.646
aF245.112
aF194.359
aF236.38600000000002
aF332.403
aF192.319
aF237.017
aF192.425
aF236.934
aF252.41599999999997
aF198.653
aF194.22400000000002
aF207.124
aF194.124
aF199.182
aF240.96300000000002
aF193.62199999999999
aF207.486
aF193.23000000000002
aF248.811
aF190.531
aF195.702
aF225.899
aF406.523
aF193.432
aF192.362
aF190.404
aF644.4830000000001
aF196.92299999999997
aF202.903
aF424.002
aF186.642
aF255.799
aF197.943
aF194.208
aF195.502
aF197.38400000000001
aF196.632
aF206.79500000000002
aF207.94899999999998
aF194.22
aF484.207
aF195.017
aF249.057
aF191.54399999999998
aF200.273
aF195.52700000000002
aF237.017
aF187.736
aF203.36499999999998
aF256.806
aF189.56
aF240.16199999999998
aF243.172
aF202.743
aF253.216
aF202.29
aF195.887
aF186.04299999999998
aF187.817
aF191.058
aF195.683
aF427.51800000000003
aF199.971
aF254.02799999999996
aF203.936
aF192.531
aF505.08
aF197.477
aF240.339
aF504.87899999999996
aF193.744
aF200.88
aF258.687
aF200.38500000000002
aF201.691
aF252.977
aF203.534
aF191.32299999999998
aF186.449
aF186.919
aF236.779
aF248.944
aF202.247
aF190.56500000000003
aF192.828
aF184.626
aF191.489
aF201.34199999999998
aF256.067
aF209.118
aF192.09300000000002
aF190.84799999999998
aF259.07599999999996
aa(lp4
F73.422
aF73.554
aF73.495
aF72.729
aF75.13
aF73.732
aF74.12899999999999
aF73.133
aF72.00999999999999
aF72.505
aF74.156
aF73.887
aF71.08000000000001
aF73.61500000000001
aF72.811
aF74.101
aF72.429
aF72.96799999999999
aF72.023
aF72.90899999999999
aF73.455
aF72.863
aF74.181
aF71.87199999999999
aF73.725
aF73.263
aF73.167
aF72.97399999999999
aF72.232
aF74.716
aF73.482
aF72.30099999999999
aF71.352
aF73.261
aF73.559
aF72.10300000000001
aF73.21700000000001
aF72.07300000000001
aF75.39699999999999
aF73.48499999999999
aF72.46900000000001
aF73.88
aF74.211
aF72.148
aF74.413
aF74.791
aF71.55199999999999
aF71.963
aF72.69300000000001
aF73.8
aF73.59
aF74.14500000000001
aF72.87899999999999
aF74.01400000000001
aF73.783
aF72.354
aF73.06800000000001
aF74.378
aF74.598
aF74.087
aF73.699
aF73.583
aF72.535
aF72.67500000000001
aF76.072
aF71.784
aF73.91999999999999
aF73.787
aF73.201
aF74.16
aF75.423
aF72.55699999999999
aF74.525
aF73.738
aF75.021
aF73.556
aF74.52199999999999
aF73.661
aF71.94
aF72.50399999999999
aF74.152
aF74.582
aF74.14399999999999
aF73.12
aF71.949
aF73.80699999999999
aF73.354
aF73.142
aF74.322
aF73.955
aF72.62
aF72.243
aF74.231
aF73.374
aF74.712
aF74.05000000000001
aF73.242
aF75.495
aF74.903
aF74.149
aaI0
aI0
a(lp5
aF0.001
a.