(lp0
(lp1
I30
aI30
aI30
aI30
aI30
aI30
aI30
aI30
aI30
aI30
aI30
aI30
aI30
aI30
aI30
aI30
aI30
aI30
aI30
aI30
aI30
aI30
aI30
aI30
aI30
aI30
aI30
aI30
aI30
aI30
aI30
aI30
aI30
aI30
aI30
aI30
aI30
aI30
aI30
aI30
aI30
aI30
aI30
aI30
aI30
aI30
aI30
aI30
aI30
aI30
aI30
aI29
aI29
aI29
aI29
aI29
aI29
aI29
aI29
aI29
aI29
aI29
aI29
aI29
aI29
aI29
aI29
aI29
aI29
aI29
aI29
aI29
aI29
aI29
aI29
aI29
aI29
aI29
aI29
aI29
aI29
aI29
aI29
aI29
aI29
aI29
aI29
aI29
aI29
aI29
aI29
aI29
aI29
aI29
aI29
aI29
aI29
aI29
aI29
aI29
aI29
aI29
aI29
aI29
aI29
aI29
aI29
aI29
aI29
aI29
aI29
aI29
aI29
aI29
aI29
aI29
aI29
aI29
aI29
aI29
aI29
aI29
aI29
aI29
aI29
aI29
aI29
aI29
aI29
aI29
aI29
aI29
aI29
aI29
aI29
aI29
aI29
aI29
aI29
aI29
aI29
aI29
aI29
aI29
aI29
aI29
aI29
aI29
aI29
aI29
aI29
aa(lp2
F25.0
aF25.0
aF25.0
aF25.0
aF25.0
aF25.0
aF25.0
aF25.0
aF25.0
aF25.0
aF25.0
aF25.0
aF25.0
aF25.0
aF25.0
aF25.0
aF25.0
aF25.0
aF25.0
aF25.0
aF25.0
aF25.0
aF25.0
aF25.0
aF25.0
aF25.0
aF25.0
aF25.0
aF25.0
aF25.0
aF25.0
aF25.0
aF25.0
aF25.0
aF25.0
aF25.0
aF25.0
aF25.0
aF25.0
aF25.0
aF25.0
aF25.0
aF25.0
aF25.0
aF25.0
aF25.0
aF25.0
aF25.0
aF25.0
aF25.0
aF25.0
aF25.0
aF25.0
aF25.0
aF25.0
aF25.0
aF25.0
aF25.0
aF25.0
aF25.0
aF25.0
aF25.0
aF25.0
aF25.0
aF25.0
aF25.0
aF25.0
aF25.0
aF25.0
aF25.0
aF25.0
aF25.0
aF25.0
aF25.0
aF25.0
aF25.0
aF25.0
aF25.0
aF25.0
aF25.0
aF25.0
aF25.0
aF25.0
aF25.0
aF25.0
aF25.0
aF25.0
aF25.0
aF25.0
aF25.0
aF25.0
aF25.0
aF25.0
aF25.0
aF25.0
aF25.0
aF25.0
aF25.0
aF25.0
aF25.0
aF25.0
aF25.0
aF25.0
aF25.0
aF25.0
aF25.0
aF25.0
aF25.0
aF25.0
aF25.0
aF25.0
aF25.0
aF25.0
aF25.0
aF25.0
aF25.0
aF25.0
aF25.0
aF25.0
aF25.0
aF25.0
aF25.0
aF25.0
aF25.0
aF25.0
aF25.0
aF25.0
aF25.0
aF25.0
aF25.0
aF25.0
aF25.0
aF25.0
aF25.0
aF25.0
aF25.0
aF25.0
aF25.0
aF25.0
aF25.0
aF25.0
aF25.0
aF25.0
aF25.0
aF25.0
aF25.0
aF25.0
aF25.0
aF25.0
aF25.0
aF25.0
aa(lp3
F4727.729
aF29799.132
aF2337.312
aF43979.44300000001
aF44367.154
aF46405.917
aF38064.344
aF29772.592
aF44757.098999999995
aF30940.182
aF44535.682
aF44493.846
aF2353.815
aF43537.018000000004
aF43042.13
aF43221.066
aF43619.007000000005
aF2346.543
aF44160.034
aF43181.09299999999
aF43584.837
aF43100.547
aF45034.191
aF29788.539
aF44281.513
aF43447.217000000004
aF38441.564999999995
aF44862.969999999994
aF42805.132999999994
aF43919.394
aF43240.599
aF43193.950000000004
aF44519.950000000004
aF44359.041
aF43837.456000000006
aF43797.903
aF44611.142
aF30557.639000000003
aF44001.376000000004
aF30140.511
aF38867.278
aF43246.535
aF44398.503
aF39368.676999999996
aF7636.715999999999
aF44146.288
aF42911.020000000004
aF43337.493
aF43308.778
aF44143.338
aF44345.711
aF92115.719
aF83533.098
aF83764.502
aF82005.10800000001
aF84235.80099999999
aF86214.534
aF85586.344
aF84725.09700000001
aF84664.586
aF15802.259
aF45201.259999999995
aF58613.695999999996
aF61379.154
aF60934.643000000004
aF84039.141
aF84350.877
aF84327.326
aF84514.66100000001
aF82683.897
aF44747.918
aF16231.293000000001
aF84281.425
aF83929.41
aF84257.069
aF76072.694
aF60688.046
aF85322.18299999999
aF73959.139
aF69214.179
aF59406.955
aF85811.04000000001
aF84541.572
aF84912.162
aF83990.511
aF84482.82299999999
aF83569.789
aF85371.57999999999
aF82500.453
aF84746.863
aF75666.735
aF84580.709
aF86731.509
aF85410.296
aF83602.396
aF60573.386999999995
aF15751.314
aF84832.577
aF84984.996
aF60307.621
aF83592.864
aF86007.09000000001
aF81308.42
aF85323.67700000001
aF85613.811
aF82190.113
aF75547.808
aF83326.21399999999
aF84006.40199999999
aF83214.355
aF86734.04
aF86497.28899999999
aF60382.254
aF84676.39099999999
aF85670.535
aF59627.806
aF83482.125
aF75840.741
aF15793.836000000001
aF85321.14799999999
aF84720.216
aF44939.35
aF85853.36
aF82786.31300000001
aF74323.753
aF82266.454
aF85783.108
aF60367.08
aF85942.648
aF85362.318
aF84143.789
aF46153.004
aF84257.768
aF59942.653
aF16101.734
aF59358.295
aF83867.01999999999
aF86748.99
aF60062.354
aF60716.736
aF97277.26199999999
aF20942.591
aF83157.255
aF84548.36899999999
aF61168.267
aF84436.855
aF83260.675
aF85133.856
aF83849.43199999999
aF84751.013
aF85505.004
aa(lp4
F725.976
aF703.896
aF716.4780000000001
aF687.9469999999999
aF722.9259999999999
aF699.905
aF734.0040000000001
aF718.893
aF708.562
aF709.1179999999999
aF698.981
aF713.638
aF739.623
aF706.2249999999999
aF709.1379999999999
aF717.492
aF714.71
aF702.098
aF700.413
aF698.0609999999999
aF702.322
aF714.003
aF695.304
aF699.423
aF703.1170000000001
aF735.3530000000001
aF707.4789999999999
aF711.4280000000001
aF708.932
aF705.556
aF744.136
aF715.188
aF716.9770000000001
aF702.605
aF710.3240000000001
aF704.288
aF707.203
aF709.168
aF715.0699999999999
aF742.1869999999999
aF710.904
aF722.442
aF716.7170000000001
aF715.48
aF720.818
aF708.046
aF699.211
aF699.446
aF705.095
aF714.2819999999999
aaI101
aI0
a(lp5
I2
aI2
aI2
aI2
aI2
aI2
aI2
aI2
aI2
aI2
aI2
aI2
aI2
aI2
aI2
aI2
aI2
aI2
aI2
aI2
aI2
aI2
aI2
aI2
aI2
aI2
aI2
aI2
aI2
aI2
aI2
aI2
aI2
aI2
aI2
aI2
aI2
aI2
aI2
aI2
aI2
aI2
aI2
aI2
aI2
aI2
aI2
aI2
aI2
aI2
aI2
aI2
aI2
aI2
aI2
aI2
aI2
aI2
aI2
aI2
aI2
aI2
aI2
aI2
aI2
aI2
aI2
aI2
aI2
aI2
aI2
aI2
aI2
aI2
aI2
aI2
aI2
aI2
aI2
aI2
aI2
aI2
aI2
aI2
aI2
aI2
aI2
aI2
aI2
aI2
aI2
aI2
aI2
aI2
aI2
aI2
aI2
aI2
aI2
aI2
aI2
aaF0.003
a.