(lp0
(lp1
I27
aI29
aI29
aI29
aI29
aI29
aI29
aI29
aI29
aI29
aI29
aI29
aI29
aI29
aI29
aI29
aI29
aI29
aI29
aI29
aI29
aI29
aI29
aI29
aI29
aI29
aI29
aI29
aI29
aI29
aI29
aI29
aI29
aI29
aI29
aI29
aI29
aI29
aI29
aI29
aI29
aI29
aI29
aI29
aI29
aI29
aI29
aI29
aI29
aI29
aI29
aI29
aI29
aI29
aI29
aI29
aI29
aI29
aI29
aI29
aI29
aI29
aI29
aI29
aI29
aI29
aI29
aI29
aI29
aI29
aI29
aI29
aI29
aI29
aI29
aI29
aI29
aI29
aI29
aI29
aI29
aI29
aI29
aI29
aI29
aI29
aI29
aI29
aI29
aI29
aI29
aI29
aI29
aI29
aI29
aI29
aI29
aI29
aI29
aI29
aa(lp2
F3.88
aF3.925925925925926
aF3.925925925925926
aF3.925925925925926
aF3.888888888888889
aF3.962962962962963
aF3.925925925925926
aF3.962962962962963
aF3.962962962962963
aF3.925925925925926
aF3.962962962962963
aF3.888888888888889
aF3.962962962962963
aF3.962962962962963
aF3.962962962962963
aF3.925925925925926
aF3.962962962962963
aF3.962962962962963
aF3.925925925925926
aF3.925925925925926
aF3.962962962962963
aF3.925925925925926
aF3.962962962962963
aF3.925925925925926
aF3.925925925925926
aF3.962962962962963
aF3.962962962962963
aF3.962962962962963
aF3.962962962962963
aF3.925925925925926
aF3.925925925925926
aF3.962962962962963
aF3.925925925925926
aF3.888888888888889
aF3.962962962962963
aF3.925925925925926
aF3.962962962962963
aF3.962962962962963
aF3.925925925925926
aF3.925925925925926
aF3.962962962962963
aF3.962962962962963
aF3.925925925925926
aF3.925925925925926
aF3.925925925925926
aF3.962962962962963
aF3.925925925925926
aF3.925925925925926
aF3.888888888888889
aF3.888888888888889
aF3.962962962962963
aF3.962962962962963
aF3.962962962962963
aF3.888888888888889
aF3.925925925925926
aF3.962962962962963
aF3.925925925925926
aF3.962962962962963
aF3.925925925925926
aF3.925925925925926
aF3.925925925925926
aF3.925925925925926
aF3.962962962962963
aF3.962962962962963
aF3.962962962962963
aF3.962962962962963
aF3.925925925925926
aF3.925925925925926
aF3.962962962962963
aF3.962962962962963
aF3.962962962962963
aF3.962962962962963
aF3.962962962962963
aF3.925925925925926
aF3.925925925925926
aF3.888888888888889
aF3.962962962962963
aF3.962962962962963
aF3.888888888888889
aF3.962962962962963
aF3.925925925925926
aF3.962962962962963
aF3.925925925925926
aF3.925925925925926
aF3.962962962962963
aF3.925925925925926
aF3.925925925925926
aF3.925925925925926
aF3.962962962962963
aF3.888888888888889
aF3.925925925925926
aF3.962962962962963
aF3.925925925925926
aF3.962962962962963
aF3.888888888888889
aF3.925925925925926
aF3.925925925925926
aF3.962962962962963
aF3.925925925925926
aF3.962962962962963
aa(lp3
F412.643
aF469.59299999999996
aF465.63
aF481.979
aF780.923
aF421.861
aF476.329
aF479.383
aF469.931
aF478.454
aF472.565
aF781.2059999999999
aF472.441
aF470.861
aF463.298
aF460.815
aF459.494
aF651.974
aF425.61
aF485.487
aF465.069
aF469.288
aF468.976
aF486.241
aF413.066
aF483.074
aF479.197
aF626.983
aF430.533
aF455.759
aF473.385
aF716.3000000000001
aF424.604
aF471.945
aF1025.558
aF423.70799999999997
aF450.87699999999995
aF481.615
aF483.83500000000004
aF677.339
aF415.26800000000003
aF415.74499999999995
aF423.44
aF772.615
aF918.8190000000001
aF477.38599999999997
aF473.323
aF473.811
aF470.10600000000005
aF499.953
aF462.866
aF467.419
aF419.372
aF465.909
aF465.22400000000005
aF424.744
aF456.97700000000003
aF474.259
aF460.429
aF473.043
aF793.5799999999999
aF722.0060000000001
aF481.706
aF648.6579999999999
aF469.935
aF476.516
aF766.764
aF464.88800000000003
aF464.344
aF650.293
aF416.828
aF486.515
aF473.39300000000003
aF475.669
aF420.175
aF472.065
aF460.858
aF425.611
aF454.972
aF420.614
aF470.266
aF640.434
aF475.63100000000003
aF469.808
aF471.683
aF475.947
aF475.887
aF846.569
aF474.339
aF469.02500000000003
aF469.003
aF478.051
aF640.9010000000001
aF473.344
aF412.932
aF476.89300000000003
aF455.66499999999996
aF476.026
aF412.794
aF479.805
aa(lp4
F98.944
aF202.63299999999998
aF565.9350000000001
aF932.6259999999999
aF301.58799999999997
aF97.96000000000001
aF102.347
aF99.532
aF205.348
aF99.951
aF386.951
aF303.055
aF200.59199999999998
aF201.96
aF193.44299999999998
aF106.714
aF196.748
aF297.111
aF100.22300000000001
aF1771.4049999999997
aF100.262
aF100.677
aF194.705
aF201.99099999999999
aF100.81700000000001
aF101.22
aF199.36599999999999
aF203.113
aF102.65
aF294.177
aF293.514
aF194.54500000000002
aF299.894
aF101.01400000000001
aF200.74400000000003
aF195.815
aF195.77300000000002
aF298.226
aF300.81
aF104.417
aF303.2
aF102.299
aF99.673
aF97.14699999999999
aF195.082
aF298.044
aF197.303
aF303.175
aF303.95000000000005
aF100.149
aF203.051
aF196.34300000000002
aF302.662
aF98.23400000000001
aF100.804
aF203.20600000000002
aF193.359
aF106.577
aF200.171
aF100.025
aF294.784
aF99.54100000000001
aF193.853
aF200.586
aF104.041
aF197.53300000000002
aF293.647
aF570.1129999999999
aF108.44
aF209.29600000000002
aF98.204
aF201.063
aF200.071
aF101.438
aF99.56700000000001
aF200.91
aF99.726
aF309.022
aF298.058
aF393.315
aF102.78
aF314.463
aF302.713
aF211.094
aF200.33499999999998
aF102.396
aF302.453
aF206.5
aF103.284
aF99.705
aaI4
aI6
a(lp5
I3
aI3
aI3
aI3
aaF0.003
a.