(lp0
(lp1
I36
aI36
aI36
aI36
aI36
aI36
aI36
aI36
aI36
aI36
aI36
aI36
aI36
aI36
aI36
aI36
aI36
aI36
aI36
aI36
aI36
aI36
aI36
aI36
aI36
aa(lp2
F2.411764705882353
aF2.4411764705882355
aF2.6176470588235294
aF2.6176470588235294
aF2.735294117647059
aF2.6470588235294117
aF2.911764705882353
aF2.3823529411764706
aF2.7058823529411766
aF2.3529411764705883
aF2.3529411764705883
aF2.5294117647058822
aF2.7941176470588234
aF2.411764705882353
aF2.588235294117647
aF3.0
aF2.588235294117647
aF2.588235294117647
aF2.588235294117647
aF2.5294117647058822
aF2.588235294117647
aF2.5294117647058822
aF2.6176470588235294
aF2.6176470588235294
aF2.6176470588235294
aa(lp3
F450.825
aF475.73199999999997
aF763.97
aF407.59299999999996
aF436.025
aF452.84499999999997
aF442.28499999999997
aF365.739
aF429.70599999999996
aF429.207
aF364.207
aF1082.953
aF463.797
aF449.60299999999995
aF424.50100000000003
aF440.776
aF444.29400000000004
aF443.65
aF768.718
aF394.792
aF464.353
aF454.126
aF765.244
aF419.751
aF387.98199999999997
aa(lp4
F734.3939999999999
aF311.80899999999997
aF833.7579999999999
aF303.549
aF2901.7980000000002
aF2019.5549999999998
aF2889.1440000000002
aF7051.070000000001
aF1112.859
aF1621.995
aF199.279
aF3214.0340000000006
aF3856.3379999999993
aF928.2040000000002
aF302.75300000000004
aF2756.103000000001
aaI8
aI1
a(lp5
I3
aI2
aI2
aI2
aI2
aI2
aI2
aI2
aaF0.001
a.