(lp0
(lp1
I12
aI12
aI12
aI12
aI12
aI12
aI12
aI12
aI12
aI12
aI12
aI12
aI12
aI12
aI12
aI12
aI12
aI12
aI12
aI12
aI12
aI12
aI12
aI12
aI12
aI12
aI12
aI12
aI12
aI12
aI12
aI12
aI12
aI12
aI12
aI12
aI12
aI12
aI12
aI12
aI12
aI12
aI12
aI12
aI12
aI12
aI12
aI12
aI12
aI12
aI12
aI12
aI12
aI12
aI12
aI12
aI12
aI12
aI12
aI12
aI12
aI12
aI12
aI12
aI12
aI12
aI12
aI12
aI12
aI12
aI12
aI12
aI12
aI12
aI12
aI12
aI12
aI12
aI12
aI12
aI12
aI12
aI12
aI12
aI12
aI12
aI12
aI12
aI12
aI12
aI12
aI12
aI12
aI12
aI12
aI12
aI12
aI12
aI12
aI12
aa(lp2
F27.0
aF27.0
aF27.0
aF27.0
aF27.0
aF27.0
aF27.0
aF27.0
aF27.0
aF27.0
aF27.0
aF27.0
aF27.0
aF27.0
aF27.0
aF27.0
aF27.0
aF27.0
aF27.0
aF27.0
aF27.0
aF27.0
aF27.0
aF27.0
aF27.0
aF27.0
aF27.0
aF27.0
aF27.0
aF27.0
aF27.0
aF27.0
aF27.0
aF27.0
aF27.0
aF27.0
aF27.0
aF27.0
aF27.0
aF27.0
aF27.0
aF27.0
aF27.0
aF27.0
aF27.0
aF27.0
aF27.0
aF27.0
aF27.0
aF27.0
aF27.0
aF27.0
aF27.0
aF27.0
aF27.0
aF27.0
aF27.0
aF27.0
aF27.0
aF27.0
aF27.0
aF27.0
aF27.0
aF27.0
aF27.0
aF27.0
aF27.0
aF27.0
aF27.0
aF27.0
aF27.0
aF27.0
aF27.0
aF27.0
aF27.0
aF27.0
aF27.0
aF27.0
aF27.0
aF27.0
aF27.0
aF27.0
aF27.0
aF27.0
aF27.0
aF27.0
aF27.0
aF27.0
aF27.0
aF27.0
aF27.0
aF27.0
aF27.0
aF27.0
aF27.0
aF27.0
aF27.0
aF27.0
aF27.0
aF27.0
aa(lp3
F523.045
aF524.278
aF525.263
aF528.347
aF535.608
aF527.18
aF526.96
aF528.259
aF525.6429999999999
aF528.922
aF521.848
aF525.458
aF527.789
aF525.904
aF528.525
aF523.22
aF527.038
aF522.306
aF528.3910000000001
aF533.311
aF531.142
aF527.298
aF523.981
aF525.053
aF523.988
aF524.203
aF523.081
aF520.336
aF526.3090000000001
aF534.088
aF522.7049999999999
aF528.334
aF529.9350000000001
aF527.453
aF523.9019999999999
aF522.768
aF544.961
aF530.424
aF531.831
aF527.6279999999999
aF521.846
aF522.5640000000001
aF548.874
aF530.854
aF520.845
aF534.447
aF522.455
aF529.346
aF519.289
aF525.652
aF522.273
aF523.289
aF517.6030000000001
aF520.236
aF516.9430000000001
aF516.816
aF522.276
aF523.302
aF522.19
aF538.308
aF526.397
aF530.0559999999999
aF525.2909999999999
aF525.395
aF525.308
aF522.184
aF530.5600000000001
aF522.35
aF519.835
aF522.972
aF528.9939999999999
aF527.6990000000001
aF521.43
aF521.362
aF527.682
aF524.277
aF522.719
aF531.156
aF526.8389999999999
aF530.0319999999999
aF527.0
aF522.325
aF530.227
aF524.39
aF529.7969999999999
aF523.361
aF530.0930000000001
aF531.747
aF530.862
aF533.318
aF530.267
aF526.455
aF524.953
aF528.886
aF525.202
aF528.715
aF519.9430000000001
aF533.504
aF531.563
aF531.786
aa(lp4
F208.26299999999998
aF220.21499999999997
aF213.298
aF220.43099999999998
aF214.779
aF215.37099999999998
aF221.166
aF219.98100000000002
aF219.746
aF215.50199999999998
aF212.479
aF216.522
aF221.199
aF220.76100000000002
aF217.26000000000002
aF220.243
aF214.764
aF218.38099999999997
aF220.188
aF219.704
aF218.514
aF217.45000000000002
aF215.34700000000004
aF218.906
aF218.11
aF218.961
aF218.251
aF216.737
aF216.168
aF218.00399999999996
aF216.063
aF223.14799999999997
aF217.292
aF212.84900000000002
aF217.52
aF216.103
aF215.769
aF215.148
aF218.841
aF212.35
aF215.158
aF216.736
aF219.85399999999998
aF222.198
aF215.02
aF218.06399999999996
aF217.697
aF217.40200000000004
aF217.613
aF217.43899999999996
aF216.88400000000001
aF212.363
aF212.25100000000003
aF214.18600000000004
aF216.183
aF211.876
aF214.98399999999998
aF213.57100000000003
aF218.159
aF218.229
aF218.646
aF213.75400000000002
aF216.272
aF210.39600000000002
aF211.945
aF214.049
aF218.801
aF210.937
aF215.15
aF215.212
aF215.59499999999997
aF213.357
aF213.78499999999997
aF215.841
aF216.07100000000003
aF220.07
aF214.79199999999997
aF215.01899999999998
aF218.40800000000002
aF214.115
aF217.37
aF214.946
aF221.058
aF220.861
aF222.573
aF215.447
aF215.192
aF219.317
aF218.327
aF219.435
aF216.483
aF218.344
aF217.03199999999998
aF217.62600000000003
aF214.115
aF220.17
aF220.627
aF221.735
aF218.701
aF219.765
aaI0
aI0
a(lp5
aF0.001
a.