(lp0
(lp1
I17
aI17
aI17
aI17
aI17
aI17
aI17
aI17
aI17
aI17
aI17
aI17
aI17
aI17
aI17
aI17
aI17
aI17
aI17
aI17
aI17
aI17
aI17
aI17
aI17
aI17
aI17
aI17
aI17
aI17
aI17
aI17
aI17
aI17
aI17
aI17
aI17
aI17
aI17
aI17
aI17
aI17
aI17
aI17
aI17
aI17
aI17
aI17
aI17
aI17
aa(lp2
F3.0
aF3.0
aF3.0
aF3.0
aF3.0
aF3.0
aF3.0
aF3.0
aF3.0
aF3.0
aF3.0
aF3.0
aF3.0
aF3.0
aF3.0
aF3.0
aF3.0
aF3.0
aF3.0
aF3.0
aF3.0
aF3.0
aF3.0
aF3.0
aF3.0
aF3.0
aF3.0
aF3.0
aF3.0
aF3.0
aF3.0
aF3.0
aF3.0
aF3.0
aF3.0
aF3.0
aF3.0
aF3.0
aF3.0
aF3.0
aF3.0
aF3.0
aF3.0
aF3.0
aF3.0
aF3.0
aF3.0
aF3.0
aF3.0
aF3.0
aa(lp3
F466.2860000000002
aF370.94999999999965
aF369.60699999999935
aF376.47100000000046
aF375.83200000000085
aF377.1399999999989
aF378.2040000000002
aF377.1689999999985
aF378.4450000000028
aF374.34999999999974
aF456.26299999999986
aF381.09700000000043
aF376.5560000000008
aF390.0170000000003
aF380.4529999999993
aF385.17799999999977
aF411.1060000000002
aF383.97799999999904
aF380.13600000000025
aF383.42199999999946
aF470.15600000000023
aF380.6640000000003
aF385.3799999999996
aF374.2970000000003
aF388.622999999999
aF384.21199999999976
aF384.3949999999996
aF387.1090000000006
aF384.9130000000009
aF386.0829999999993
aF495.94700000000057
aF398.1009999999996
aF394.88899999999916
aF397.2620000000013
aF397.39900000000006
aF379.6160000000004
aF394.80800000000113
aF396.3249999999974
aF394.8949999999982
aF395.96299999999826
aF512.9089999999997
aF397.545
aF380.4649999999992
aF390.7379999999989
aF401.78599999999955
aF402.6379999999996
aF402.3820000000029
aF397.3830000000014
aF402.99899999999764
aF426.70599999999934
aaF512.9089999999997
aF369.60699999999935
a(lp4
F474.09400000000005
aF467.09799999999916
aF469.9079999999994
aF485.83299999999775
aF476.69999999999925
aF493.66799999999955
aF468.1530000000027
aF467.37900000000286
aF491.34499999999906
aF462.7069999999982
aF500.83699999999976
aF467.7300000000004
aF465.6009999999995
aF467.27000000000095
aF469.1100000000024
aF468.53199999999975
aF460.3169999999999
aF460.9179999999995
aF460.22299999999916
aF462.37799999999754
aF470.80899999999826
aF473.7
aF480.6170000000014
aF494.4320000000015
aF471.5869999999996
aF495.8580000000001
aF476.0559999999998
aF477.63399999999655
aF504.46499999999617
aF470.1780000000006
aF1208.9100000000005
aF1211.2749999999996
aF1215.8600000000029
aF1188.5710000000015
aF1190.852999999997
aF1209.6759999999983
aF1217.3580000000009
aF1194.1060000000014
aF1216.8969999999995
aF1221.6839999999997
aF966.0000000000002
aF928.1669999999992
aF986.027
aF945.7290000000002
aF975.2160000000015
aF939.4960000000056
aF973.6679999999999
aF935.8429999999985
aF915.8640000000026
aF936.7489999999989
aaF1221.6839999999997
aF460.22299999999916
a.