(lp0
(lp1
I13
aI13
aI13
aI13
aI13
aI13
aI13
aI13
aI13
aI13
aI13
aI13
aI13
aI13
aI13
aI13
aI13
aI13
aI13
aI13
aI13
aI13
aI13
aI13
aI13
aI13
aI13
aI13
aI13
aI13
aI13
aI13
aI13
aI13
aI13
aI13
aI13
aI13
aI13
aI13
aI13
aI13
aI13
aI13
aI13
aI13
aI13
aI13
aI13
aI13
aa(lp2
F2.5384615384615383
aF2.5384615384615383
aF2.5384615384615383
aF2.5384615384615383
aF2.5384615384615383
aF2.5384615384615383
aF2.5384615384615383
aF2.5384615384615383
aF2.5384615384615383
aF2.5384615384615383
aF2.5384615384615383
aF2.5384615384615383
aF2.5384615384615383
aF2.5384615384615383
aF2.5384615384615383
aF2.5384615384615383
aF2.5384615384615383
aF2.5384615384615383
aF2.5384615384615383
aF2.5384615384615383
aF2.5384615384615383
aF2.5384615384615383
aF2.5384615384615383
aF2.5384615384615383
aF2.5384615384615383
aF2.5384615384615383
aF2.5384615384615383
aF2.5384615384615383
aF2.5384615384615383
aF2.5384615384615383
aF2.5384615384615383
aF2.5384615384615383
aF2.5384615384615383
aF2.5384615384615383
aF2.5384615384615383
aF2.5384615384615383
aF2.5384615384615383
aF2.5384615384615383
aF2.5384615384615383
aF2.5384615384615383
aF2.5384615384615383
aF2.5384615384615383
aF2.5384615384615383
aF2.5384615384615383
aF2.5384615384615383
aF2.5384615384615383
aF2.5384615384615383
aF2.5384615384615383
aF2.5384615384615383
aF2.5384615384615383
aa(lp3
F684.7789999999998
aF321.7939999999997
aF321.43999999999994
aF324.6260000000003
aF328.40399999999903
aF350.956
aF326.48000000000013
aF327.02899999999954
aF329.9800000000008
aF326.9780000000004
aF696.7249999999998
aF321.38000000000045
aF324.9659999999999
aF325.7499999999993
aF326.60599999999994
aF348.9880000000003
aF327.8769999999991
aF323.1920000000006
aF327.9399999999999
aF326.5229999999981
aF732.9890000000004
aF328.9709999999992
aF327.3659999999996
aF327.1909999999991
aF327.6939999999993
aF346.75299999999964
aF327.08599999999956
aF326.1269999999996
aF315.18500000000137
aF315.45900000000063
aF685.1630000000002
aF311.5010000000007
aF313.08999999999986
aF336.35500000000104
aF310.55699999999933
aF309.68400000000076
aF311.1549999999994
aF308.86999999999887
aF310.30799999999914
aF309.97500000000144
aF707.6020000000001
aF322.5239999999996
aF326.3910000000001
aF352.6579999999999
aF325.80899999999957
aF325.571
aF326.34900000000044
aF325.1209999999993
aF327.4200000000001
aF328.13200000000006
aaF732.9890000000004
aF308.86999999999887
a(lp4
F562.768000000002
aF564.2240000000003
aF592.0550000000002
aF563.1909999999997
aF561.2069999999995
aF557.6469999999994
aF558.3150000000003
aF562.2870000000013
aF572.828000000003
aF589.5109999999981
aF556.26
aF555.8050000000012
aF583.7749999999993
aF556.1149999999984
aF560.5519999999995
aF559.4240000000018
aF554.9809999999998
aF557.0869999999992
aF560.4830000000032
aF583.4130000000001
aF578.3569999999995
aF580.7989999999999
aF600.3490000000004
aF580.1920000000003
aF571.9440000000002
aF572.4519999999984
aF571.724999999999
aF569.1980000000001
aF574.1439999999986
aF598.8920000000029
aF472.8970000000006
aF472.5000000000001
aF475.8230000000019
aF471.19599999999906
aF474.9730000000003
aF505.93500000000097
aF477.04599999999965
aF471.99899999999843
aF471.4319999999965
aF473.6919999999998
aF469.2319999999999
aF469.563
aF468.3889999999984
aF469.2520000000026
aF468.64500000000044
aF507.46099999999933
aF467.44000000000165
aF470.5279999999999
aF467.172999999999
aF468.31800000000004
aaF600.3490000000004
aF467.172999999999
a.