(lp0
(lp1
I16
aI16
aI16
aI16
aI16
aI16
aI16
aI16
aI16
aI16
aI16
aI16
aI16
aI16
aI16
aI16
aI16
aI16
aI16
aI16
aa(lp2
F1.2857142857142858
aF1.2857142857142858
aF1.2857142857142858
aF1.2857142857142858
aF1.2857142857142858
aF1.2857142857142858
aF1.2857142857142858
aF1.2857142857142858
aF1.2857142857142858
aF1.2857142857142858
aF1.2857142857142858
aF1.2857142857142858
aF1.2857142857142858
aF1.2857142857142858
aF1.2857142857142858
aF1.2857142857142858
aF1.2857142857142858
aF1.2857142857142858
aF1.2857142857142858
aF1.2857142857142858
aa(lp3
F81.23700000000001
aF77.429
aF75.542
aF73.652
aF75.87
aF77.53699999999999
aF75.402
aF76.648
aF75.257
aF78.18700000000001
aF78.048
aF76.16000000000001
aF80.856
aF78.318
aF74.571
aF76.782
aF77.39500000000001
aF77.724
aF75.907
aF78.628
aa(lp4
F36.017
aF35.198
aF34.062000000000005
aF35.685
aF34.858
aF34.449
aF36.233000000000004
aF35.293
aF34.327000000000005
aF34.981
aF34.509
aF35.645
aF35.142
aF34.651
aF34.519
aF35.428000000000004
aF34.556000000000004
aF35.329
aF33.569
aF34.925
aaI0
aI0
a(lp5
aF0.005
a.