(lp0
(lp1
I36
aI36
aI36
aI36
aI36
aI36
aI36
aI36
aI36
aI36
aI36
aI36
aI36
aI36
aI36
aI36
aI36
aI36
aI36
aI36
aI36
aI36
aI36
aI36
aI36
aI36
aI36
aI36
aI36
aI36
aI36
aI36
aI36
aI36
aI36
aI36
aI36
aI36
aI36
aI36
aI36
aI36
aI36
aI36
aI36
aI36
aI36
aI36
aI36
aI36
aI36
aI36
aI36
aI36
aI36
aI36
aI36
aI36
aI36
aI36
aI36
aI36
aI36
aI36
aI36
aI36
aI36
aI36
aI36
aI36
aI36
aI36
aI36
aI36
aI36
aI36
aI36
aI36
aI36
aI36
aI36
aI36
aI36
aI36
aI36
aI36
aI36
aI36
aI36
aI36
aI36
aI36
aI36
aI36
aI36
aI36
aI36
aI36
aI36
aI36
aa(lp2
F2.4705882352941178
aF2.588235294117647
aF2.4411764705882355
aF2.588235294117647
aF2.7058823529411766
aF2.5
aF2.4705882352941178
aF2.3823529411764706
aF2.4411764705882355
aF2.823529411764706
aF2.5588235294117645
aF2.7058823529411766
aF2.4411764705882355
aF2.5294117647058822
aF2.7941176470588234
aF2.5294117647058822
aF2.4705882352941178
aF2.3823529411764706
aF2.6176470588235294
aF2.2058823529411766
aF2.7058823529411766
aF2.5588235294117645
aF2.676470588235294
aF2.8823529411764706
aF2.9411764705882355
aF2.676470588235294
aF2.588235294117647
aF2.7058823529411766
aF2.823529411764706
aF2.764705882352941
aF2.7058823529411766
aF2.735294117647059
aF2.5588235294117645
aF2.5588235294117645
aF2.411764705882353
aF2.4411764705882355
aF2.764705882352941
aF2.3823529411764706
aF2.764705882352941
aF2.588235294117647
aF2.823529411764706
aF2.676470588235294
aF2.676470588235294
aF2.7941176470588234
aF2.676470588235294
aF2.676470588235294
aF2.411764705882353
aF2.5294117647058822
aF2.6176470588235294
aF2.764705882352941
aF2.6470588235294117
aF2.588235294117647
aF2.588235294117647
aF2.5294117647058822
aF2.764705882352941
aF2.676470588235294
aF2.411764705882353
aF2.6176470588235294
aF2.6176470588235294
aF2.5588235294117645
aF2.764705882352941
aF2.6176470588235294
aF2.5
aF2.4705882352941178
aF2.3823529411764706
aF2.6470588235294117
aF2.5294117647058822
aF2.6470588235294117
aF2.5588235294117645
aF2.7058823529411766
aF2.5
aF2.6176470588235294
aF2.1176470588235294
aF2.6176470588235294
aF2.5588235294117645
aF2.6176470588235294
aF2.235294117647059
aF2.7941176470588234
aF2.823529411764706
aF2.5
aF2.5
aF2.6176470588235294
aF2.6470588235294117
aF2.6470588235294117
aF2.7941176470588234
aF2.0294117647058822
aF2.588235294117647
aF2.5294117647058822
aF2.4411764705882355
aF2.7058823529411766
aF2.5588235294117645
aF2.676470588235294
aF2.4705882352941178
aF2.588235294117647
aF2.5294117647058822
aF2.5588235294117645
aF2.5
aF2.264705882352941
aF2.6470588235294117
aF2.5
aa(lp3
F743.402
aF443.589
aF462.906
aF429.99
aF460.466
aF442.075
aF420.265
aF466.659
aF624.208
aF443.367
aF420.265
aF424.188
aF434.339
aF387.357
aF591.09
aF468.528
aF427.904
aF359.451
aF430.283
aF383.164
aF418.217
aF432.714
aF418.74699999999996
aF440.233
aF746.1
aF427.613
aF430.754
aF398.424
aF423.307
aF457.067
aF443.71500000000003
aF533.602
aF428.585
aF447.995
aF433.353
aF1145.859
aF449.62600000000003
aF376.736
aF637.19
aF500.042
aF434.2
aF1459.2730000000001
aF456.09499999999997
aF443.169
aF1939.73
aF411.642
aF463.075
aF556.311
aF430.884
aF511.70300000000003
aF904.3520000000001
aF465.145
aF388.667
aF468.386
aF442.772
aF461.272
aF397.338
aF451.677
aF454.97900000000004
aF504.91600000000005
aF451.392
aF440.103
aF466.804
aF455.155
aF453.612
aF448.71
aF598.094
aF458.51
aF446.12600000000003
aF462.699
aF778.829
aF447.942
aF370.47200000000004
aF457.281
aF422.678
aF446.29
aF422.044
aF469.857
aF497.47799999999995
aF381.867
aF463.05800000000005
aF456.36
aF434.031
aF482.209
aF486.435
aF597.565
aF456.427
aF498.64000000000004
aF534.556
aF457.747
aF402.23900000000003
aF1585.192
aF402.54
aF457.75300000000004
aF482.07
aF457.425
aF437.249
aF429.203
aF442.109
aF433.593
aa(lp4
F295.719
aF562.7199999999999
aF308.93899999999996
aF315.403
aF195.999
aF1339.433
aF105.196
aF210.622
aF211.50400000000002
aF205.297
aF404.521
aF397.41
aF2637.1820000000007
aF199.974
aF3752.150999999999
aF196.727
aF5223.5729999999985
aF211.06400000000002
aF312.50199999999995
aF305.288
aF22307.257
aF907.875
aF210.025
aF358.732
aF315.264
aF203.541
aF317.914
aF1863.5200000000002
aF5508.711000000001
aF1175.107
aF211.25
aF303.201
aF584.937
aF217.13799999999998
aF311.272
aF5472.5009999999975
aF201.821
aF198.79899999999998
aF6264.489000000001
aF528.2929999999999
aF220.55200000000002
aF2051.683
aF318.232
aF225.32
aF335.546
aF327.993
aF1062.5089999999998
aF1079.301
aF109.766
aF315.481
aF1806.6989999999998
aF214.54
aF207.273
aF368.181
aF216.565
aF1452.198
aF3476.791
aF221.063
aF229.142
aF223.247
aF110.64200000000001
aF284.019
aF220.48200000000003
aF111.55
aF413.23699999999997
aF311.99300000000005
aF215.54999999999998
aF215.753
aF1493.229
aF1972.1290000000001
aF304.37
aF2382.9179999999997
aF2141.699
aF645.25
aF599.056
aF526.508
aF1575.754
aF216.827
aF436.419
aF206.61900000000003
aF320.972
aF218.55900000000003
aF232.219
aF3534.8489999999997
aaI6
aI10
a(lp5
I3
aI3
aI2
aI3
aI3
aI3
aaF0.005
a.