(lp0
(lp1
I8
aI8
aI8
aI8
aI8
aI8
aI8
aI8
aI8
aI8
aI8
aI8
aI8
aI8
aI8
aI8
aI8
aI8
aI8
aI8
aa(lp2
F7.0
aF7.0
aF7.0
aF7.0
aF7.0
aF7.0
aF7.0
aF7.0
aF7.0
aF7.0
aF7.0
aF7.0
aF7.0
aF7.0
aF7.0
aF7.0
aF7.0
aF7.0
aF7.0
aF7.0
aa(lp3
F59.753
aF58.160999999999994
aF59.846000000000004
aF58.753
aF59.925
aF58.829
aF58.013000000000005
aF58.349
aF59.72
aF58.884
aF57.907000000000004
aF57.844
aF62.461000000000006
aF62.074
aF60.864000000000004
aF65.025
aF57.107
aF60.127
aF58.03
aF59.778
aa(lp4
F23.717
aF23.204
aF22.919999999999998
aF25.105999999999998
aF26.366
aF24.236
aF22.828
aF23.073
aF23.276999999999997
aF24.007
aF23.404
aF23.810000000000002
aF24.230999999999998
aF23.132
aF24.605999999999998
aF23.829
aF24.047
aF23.924999999999997
aF23.766
aF25.911
aaI0
aI0
a(lp5
aF0.005
a.