(lp0
(lp1
I31
aI31
aI31
aI31
aI31
aI31
aI31
aI31
aI31
aI31
aI31
aI31
aI31
aI31
aI31
aI31
aI31
aI31
aI31
aI31
aa(lp2
F2.2903225806451615
aF2.4516129032258065
aF2.5806451612903225
aF2.3225806451612905
aF2.2580645161290325
aF2.3225806451612905
aF2.4838709677419355
aF2.5161290322580645
aF2.5483870967741935
aF2.225806451612903
aF2.161290322580645
aF2.4838709677419355
aF2.4193548387096775
aF2.806451612903226
aF2.5161290322580645
aF2.4516129032258065
aF2.5161290322580645
aF2.3870967741935485
aF2.806451612903226
aF2.5483870967741935
aa(lp3
F328.23600000000005
aF400.75
aF845.8679999999999
aF412.30400000000003
aF1240.51
aF428.712
aF365.8
aF734.4119999999999
aF510.83299999999997
aF363.53999999999996
aF493.059
aF674.611
aF455.266
aF649.149
aF364.416
aF567.852
aF446.038
aF614.698
aF430.055
aF336.07
aa(lp4
F85.65599999999999
aF257.696
aF169.833
aF306.188
aF175.375
aF245.839
aF173.961
aF236.973
aF179.035
aF175.38600000000002
aF90.945
aF473.894
aF529.807
aF182.39800000000002
aaI2
aI4
a(lp5
I3
aI3
aa.