(lp0
(lp1
I15
aI15
aI15
aI15
aI15
aI15
aI15
aI15
aI15
aI15
aI15
aI15
aI15
aI15
aI15
aI15
aI15
aI15
aI15
aI15
aI15
aI15
aI15
aI15
aI15
aI15
aI15
aI15
aI15
aI15
aI15
aI15
aI15
aI15
aI15
aI15
aI15
aI15
aI15
aI15
aI15
aI15
aI15
aI15
aI15
aI15
aI15
aI15
aI15
aI15
aa(lp2
F2.7333333333333334
aF2.7333333333333334
aF2.7333333333333334
aF2.7333333333333334
aF2.7333333333333334
aF2.7333333333333334
aF2.7333333333333334
aF2.7333333333333334
aF2.7333333333333334
aF2.7333333333333334
aF2.7333333333333334
aF2.7333333333333334
aF2.7333333333333334
aF2.7333333333333334
aF2.7333333333333334
aF2.7333333333333334
aF2.7333333333333334
aF2.7333333333333334
aF2.7333333333333334
aF2.7333333333333334
aF2.7333333333333334
aF2.7333333333333334
aF2.7333333333333334
aF2.7333333333333334
aF2.7333333333333334
aF2.7333333333333334
aF2.7333333333333334
aF2.7333333333333334
aF2.7333333333333334
aF2.7333333333333334
aF2.7333333333333334
aF2.7333333333333334
aF2.7333333333333334
aF2.7333333333333334
aF2.7333333333333334
aF2.7333333333333334
aF2.7333333333333334
aF2.7333333333333334
aF2.7333333333333334
aF2.7333333333333334
aF2.7333333333333334
aF2.7333333333333334
aF2.7333333333333334
aF2.7333333333333334
aF2.7333333333333334
aF2.7333333333333334
aF2.7333333333333334
aF2.7333333333333334
aF2.7333333333333334
aF2.7333333333333334
aa(lp3
F172.91400000000002
aF164.19500000000002
aF165.692
aF171.00199999999998
aF169.217
aF174.85899999999998
aF167.82
aF167.02
aF168.06799999999998
aF170.30200000000002
aF169.13400000000001
aF167.969
aF169.715
aF163.555
aF170.241
aF167.886
aF162.86700000000002
aF162.58800000000002
aF159.101
aF166.473
aF170.108
aF169.957
aF168.019
aF168.15800000000002
aF168.516
aF167.36100000000002
aF158.935
aF170.044
aF169.28199999999998
aF168.716
aF135.135
aF127.31
aF135.541
aF117.16799999999999
aF143.749
aF146.09
aF149.327
aF134.631
aF135.297
aF139.856
aF144.173
aF164.676
aF171.75
aF165.67100000000002
aF173.6
aF159.673
aF167.927
aF166.104
aF171.853
aF163.82399999999998
aa(lp4
F97.26599999999999
aF95.776
aF96.1
aF98.433
aF97.14200000000001
aF95.666
aF95.186
aF95.548
aF96.137
aF95.08000000000001
aF98.20100000000001
aF94.56099999999999
aF95.875
aF94.357
aF96.5
aF95.948
aF97.23
aF95.952
aF95.88499999999999
aF94.17399999999999
aF99.68900000000001
aF99.009
aF97.786
aF97.38900000000001
aF97.048
aF96.853
aF95.827
aF95.887
aF96.313
aF95.639
aF97.346
aF95.664
aF96.676
aF96.51700000000001
aF96.848
aF98.287
aF99.437
aF99.738
aF95.543
aF95.148
aF99.23
aF97.401
aF97.286
aF97.47399999999999
aF98.09800000000001
aF97.477
aF97.096
aF96.074
aF104.34099999999998
aF96.137
aa(lp5
F98.75200000000001
aF98.31
aF96.75399999999999
aF100.138
aF97.517
aF97.845
aF98.017
aF97.785
aF97.125
aF97.893
aF98.042
aF97.518
aF100.771
aF97.875
aF100.545
aF98.51899999999999
aF104.793
aF97.387
aF97.709
aF97.455
aF103.964
aF98.369
aF96.953
aF99.20400000000001
aF96.54100000000001
aF96.375
aF97.042
aF97.082
aF98.16399999999999
aF96.88599999999998
aF97.889
aF96.88
aF97.621
aF101.741
aF98.214
aF103.11699999999999
aF103.565
aF98.076
aF96.599
aF97.836
aF101.481
aF98.65899999999999
aF100.684
aF99.915
aF98.81899999999999
aF98.116
aF98.86600000000001
aF99.86600000000001
aF97.622
aF100.548
aa.