(lp0
(lp1
I16
aI16
aI16
aI16
aI16
aI16
aI16
aI16
aI16
aI16
aI16
aI16
aI16
aI16
aI16
aI16
aI16
aI16
aI16
aI16
aI16
aI16
aI16
aI16
aI16
aI16
aI16
aI16
aI16
aI16
aI16
aI16
aI16
aI16
aI16
aI16
aI16
aI16
aI16
aI16
aI16
aI16
aI16
aI16
aI16
aI16
aI16
aI16
aI16
aI16
aI16
aI16
aI16
aI16
aI16
aI16
aI16
aI16
aI16
aI16
aI16
aI16
aI16
aI16
aI16
aI16
aI16
aI16
aI16
aI16
aI16
aI16
aI16
aI16
aI16
aI16
aI16
aI16
aI16
aI16
aI16
aI16
aI16
aI16
aI16
aI16
aI16
aI16
aI16
aI16
aI16
aI16
aI16
aI16
aI16
aI16
aI16
aI16
aI16
aI16
aa(lp2
F17.0
aF17.0
aF17.0
aF17.0
aF17.0
aF17.0
aF17.0
aF17.0
aF17.0
aF17.0
aF17.0
aF17.0
aF17.0
aF17.0
aF17.0
aF17.0
aF17.0
aF17.0
aF17.0
aF17.0
aF17.0
aF17.0
aF17.0
aF17.0
aF17.0
aF17.0
aF17.0
aF17.0
aF17.0
aF17.0
aF17.0
aF17.0
aF17.0
aF17.0
aF17.0
aF17.0
aF17.0
aF17.0
aF17.0
aF17.0
aF17.0
aF17.0
aF17.0
aF17.0
aF17.0
aF17.0
aF17.0
aF17.0
aF17.0
aF17.0
aF17.0
aF17.0
aF17.0
aF17.0
aF17.0
aF17.0
aF17.0
aF17.0
aF17.0
aF17.0
aF17.0
aF17.0
aF17.0
aF17.0
aF17.0
aF17.0
aF17.0
aF17.0
aF17.0
aF17.0
aF17.0
aF17.0
aF17.0
aF17.0
aF17.0
aF17.0
aF17.0
aF17.0
aF17.0
aF17.0
aF17.0
aF17.0
aF17.0
aF17.0
aF17.0
aF17.0
aF17.0
aF17.0
aF17.0
aF17.0
aF17.0
aF17.0
aF17.0
aF17.0
aF17.0
aF17.0
aF17.0
aF17.0
aF17.0
aF17.0
aa(lp3
F68.096
aF65.217
aF65.308
aF63.79600000000001
aF64.55900000000001
aF68.522
aF61.786
aF63.967
aF68.833
aF67.553
aF64.54899999999999
aF66.969
aF66.981
aF66.56099999999999
aF63.495999999999995
aF68.716
aF67.787
aF66.045
aF68.095
aF66.891
aF65.303
aF68.083
aF67.441
aF66.078
aF64.763
aF65.271
aF65.746
aF64.762
aF67.83699999999999
aF65.35000000000001
aF66.092
aF66.057
aF68.232
aF66.43
aF66.033
aF66.031
aF68.698
aF65.72500000000001
aF67.592
aF69.643
aF67.94699999999999
aF67.902
aF65.67399999999999
aF68.386
aF68.696
aF66.983
aF65.793
aF68.111
aF66.538
aF67.08699999999999
aF69.121
aF67.94
aF68.328
aF67.37
aF68.94
aF68.78399999999999
aF65.26899999999999
aF67.934
aF67.92099999999999
aF69.846
aF65.39699999999999
aF66.33200000000001
aF68.23
aF68.76400000000001
aF66.138
aF66.028
aF65.67
aF65.702
aF66.76899999999999
aF66.75
aF68.163
aF65.931
aF69.259
aF68.126
aF67.38
aF67.672
aF67.689
aF66.247
aF61.72
aF68.271
aF66.417
aF67.026
aF64.24199999999999
aF65.53699999999999
aF68.83699999999999
aF68.562
aF66.989
aF66.973
aF66.28
aF66.076
aF65.607
aF66.21000000000001
aF67.94
aF67.259
aF68.03399999999999
aF66.18599999999999
aF69.18
aF65.738
aF69.723
aF66.51700000000001
aa(lp4
F31.902
aF32.368
aF32.766000000000005
aF32.847
aF32.163
aF32.309
aF32.717000000000006
aF35.131
aF31.904000000000003
aF32.144
aF32.315000000000005
aF32.532
aF32.844
aF32.682
aF32.563
aF32.719
aF31.687
aF32.688
aF32.199
aF32.059
aF32.161
aF31.703000000000003
aF32.242
aF31.544999999999998
aF32.300000000000004
aF32.852
aF32.069
aF32.196000000000005
aF32.857
aF32.683
aF31.718999999999998
aF32.522000000000006
aF32.653
aF32.959
aF32.775
aF33.169
aF32.618
aF32.769
aF32.631
aF33.208
aF32.33
aF32.209
aF32.657
aF32.641000000000005
aF32.324
aF32.927
aF32.671
aF32.707
aF32.394
aF32.443
aF33.003
aF35.007000000000005
aF32.446000000000005
aF31.976999999999997
aF32.148999999999994
aF31.906999999999996
aF32.467000000000006
aF33.025
aF32.588
aF33.311
aF32.620000000000005
aF32.474999999999994
aF32.885
aF31.743000000000002
aF31.98
aF32.33
aF32.690999999999995
aF32.283
aF32.168
aF33.025999999999996
aF31.855
aF32.859
aF33.474
aF32.311
aF32.427
aF32.616
aF32.426
aF32.772999999999996
aF32.609
aF32.743
aF33.321999999999996
aF31.794000000000004
aF32.792
aF32.344
aF33.108
aF32.467999999999996
aF32.232
aF32.861000000000004
aF32.423
aF31.695
aF32.778
aF32.494
aF32.472
aF32.733
aF33.522000000000006
aF32.538
aF32.857
aF32.838
aF33.092000000000006
aF32.623
aaI0
aI0
a(lp5
aF0.05
a.