(lp0
(lp1
F1.0726598025304845
aF1.1188080509906242
aF1.0202674754737102
aF0.9383883932170848
aF1.1767434306526827
aF1.186392490580237
aF1.1369144309874188
aF1.1154571505529554
aF1.015666598712608
aF0.7385511982919089
aF1.1895582034629686
aF1.2198460417605612
aF0.7105299635858462
aF0.7541536410602162
aF1.2396543704663978
aF0.9382893311539725
aF0.920481799705487
aF0.8264815250276036
aF0.9023098047186364
aF0.7444474586976196
aF1.174684922634214
aF1.1056458938155802
aF1.2466023432733961
aF0.9088501920009688
aF1.177131936675939
aF1.1871295200497647
aF1.0382381497069904
aF0.749176103443826
aF1.243950149384569
aF0.9577370708837601
aF0.8805424955575188
aF0.8449042254588028
aF0.8307469803306188
aF0.780227659653555
aF0.8044132565813831
aF1.2309488759660976
aF1.0438920231014943
aF1.203688182127743
aF1.2680125181171176
aF1.02286616556176
aF1.174513822764512
aF1.2147541173725491
aF1.2284067521467072
aF1.1568514369277447
aF1.0500482839265892
aF1.0867583638185934
aF1.2560401111046915
aF0.8543492191753436
aF0.8178012380311018
aF1.1255593479416397
aF1.2872949143945975
aF0.9649280811349545
aF1.1397618945994854
aF0.7046870158709386
aF1.2236695729928386
aF1.0111531630772772
aF0.8089745729309263
aF0.8823635654562945
aF1.1225552013339226
aF0.7792773304249748
aF1.0599428991525006
aF1.259431892679543
aF0.9424074100975308
aF0.9478005735707676
aF0.9476919010852181
aF0.8638527519665603
aF0.870284272841943
aF1.1274524398557166
aF1.0598007473901512
aF1.2456372797686048
aF0.7696121010951109
aF1.007891352686402
aF1.2594276222043095
aF0.8669135679205083
aF1.285757891507005
aF1.2166284182846052
aF0.8177912908976173
aF0.9773416918968567
aF1.1371054491689911
aF1.2216046476152882
aF0.9538751881600352
aF0.8401880722804012
aF1.0523795285831699
aF0.9483214690008739
aF1.015101139632042
aF0.7636731377527992
aF0.8932824087037643
aF0.7860788040109921
aF0.8387417410565107
aF0.9138802960214838
aF0.760166750410753
aF1.2937502741001365
aF1.2738811837587023
aF0.8211377470802974
aF1.1904250051499665
aF1.1741589686146408
aF0.7105912489564311
aF0.8150162429695207
aF0.9352212182261173
aF1.2263412169061798
aa(lp2
F1.0726598025304845
aF0.9383883932170848
aF0.7385511982919089
aF0.7105299635858462
aF0.7541536410602162
aF0.9382893311539725
aF0.920481799705487
aF0.9023098047186364
aF0.9088501920009688
aF1.0382381497069904
aF0.749176103443826
aF0.9577370708837601
aF0.8805424955575188
aF0.8449042254588028
aF0.780227659653555
aF0.8044132565813831
aF1.0438920231014943
aF1.02286616556176
aF1.0500482839265892
aF1.0867583638185934
aF0.8543492191753436
aF0.9649280811349545
aF0.7046870158709386
aF0.8089745729309263
aF0.8823635654562945
aF0.7792773304249748
aF1.0599428991525006
aF0.9424074100975308
aF0.9478005735707676
aF0.9476919010852181
aF0.8638527519665603
aF1.0598007473901512
aF0.7696121010951109
aF1.007891352686402
aF0.8177912908976173
aF0.9538751881600352
aF1.0523795285831699
aF0.9483214690008739
aF0.7636731377527992
aF0.8932824087037643
aF0.9138802960214838
aF0.760166750410753
aF0.8211377470802974
aF0.7105912489564311
aF0.9352212182261173
aa(lp3
a(lp4
F1.1188080509906242
aF1.0202674754737102
aF1.1767434306526827
aF1.186392490580237
aF1.1369144309874188
aF1.1154571505529554
aF1.015666598712608
aF1.1895582034629686
aF1.2198460417605612
aF1.2396543704663978
aF0.8264815250276036
aF0.7444474586976196
aF1.174684922634214
aF1.1056458938155802
aF1.2466023432733961
aF1.177131936675939
aF1.1871295200497647
aF1.243950149384569
aF0.8307469803306188
aF1.2309488759660976
aF1.203688182127743
aF1.2680125181171176
aF1.174513822764512
aF1.2147541173725491
aF1.2284067521467072
aF1.1568514369277447
aF1.2560401111046915
aF0.8178012380311018
aF1.1255593479416397
aF1.2872949143945975
aF1.1397618945994854
aF1.2236695729928386
aF1.0111531630772772
aF1.1225552013339226
aF1.259431892679543
aF0.870284272841943
aF1.1274524398557166
aF1.2456372797686048
aF1.2594276222043095
aF0.8669135679205083
aF1.285757891507005
aF1.2166284182846052
aF0.9773416918968567
aF1.1371054491689911
aF1.2216046476152882
aF0.8401880722804012
aF1.015101139632042
aF0.7860788040109921
aF0.8387417410565107
aF1.2937502741001365
aF1.2738811837587023
aF1.1904250051499665
aF1.1741589686146408
aF0.8150162429695207
aF1.2263412169061798
aa(lp5
F1060.0
aF1210.0
aF960.0
aF850.0
aF970.0
aF1290.0
aF830.0
aF790.0
aF1100.0
aF1010.0
aF1000.0
aF1000.0
aF1000.0
aF1000.0
aF1000.0
aF1000.0
aF1000.0
aF1000.0
aF1000.0
aF1000.0
aF1000.0
aF1000.0
aF1000.0
aF1000.0
aF1000.0
aF1000.0
aF1000.0
aF1000.0
aF1000.0
aF1000.0
aF940.0
aF1110.0
aF740.0
aF1080.0
aF830.0
aF770.0
aF720.0
aF1190.0
aF730.0
aF990.0
aF740.0
aF1060.0
aF1100.0
aF860.0
aF1160.0
aF1190.0
aF970.0
aF820.0
aF750.0
aF940.0
aF1010.0
aF810.0
aF1170.0
aF1200.0
aF1030.0
aF1090.0
aF780.0
aF810.0
aF1270.0
aF900.0
aF1010.0
aF920.0
aF1260.0
aF1040.0
aF790.0
aF910.0
aF860.0
aF1020.0
aF920.0
aF970.0
aF780.0
aF780.0
aF1240.0
aF750.0
aF1280.0
aF1100.0
aF1150.0
aF790.0
aF1080.0
aF940.0
aF1180.0
aF880.0
aF1050.0
aF860.0
aF1070.0
aF790.0
aF750.0
aF1090.0
aF790.0
aF790.0
aF1070.0
aF1210.0
aF750.0
aF1210.0
aF950.0
aF1120.0
aF1180.0
aF1250.0
aF1050.0
aF1020.0
aa(lp6
F1060.0
aF850.0
aF1010.0
aF1000.0
aF1000.0
aF1000.0
aF1000.0
aF1000.0
aF1000.0
aF1000.0
aF1000.0
aF1000.0
aF940.0
aF1110.0
aF1080.0
aF830.0
aF720.0
aF990.0
aF1160.0
aF1190.0
aF820.0
aF810.0
aF1200.0
aF780.0
aF810.0
aF900.0
aF1010.0
aF1260.0
aF1040.0
aF790.0
aF910.0
aF920.0
aF780.0
aF780.0
aF1150.0
aF1180.0
aF1050.0
aF860.0
aF790.0
aF750.0
aF790.0
aF1070.0
aF1210.0
aF1180.0
aF1050.0
aa(lp7
(lp8
a(lp9
aa(lp10
(lp11
F1210.0
aF960.0
aF970.0
aF1290.0
aF830.0
aF790.0
aF1100.0
aF1000.0
aF1000.0
aF1000.0
aF1000.0
aF1000.0
aF1000.0
aF1000.0
aF1000.0
aF1000.0
aF1000.0
aF1000.0
aF740.0
aF770.0
aF1190.0
aF730.0
aF740.0
aF1060.0
aF1100.0
aF860.0
aF970.0
aF750.0
aF940.0
aF1010.0
aF1170.0
aF1030.0
aF1090.0
aF1270.0
aF920.0
aF860.0
aF1020.0
aF970.0
aF1240.0
aF750.0
aF1280.0
aF1100.0
aF790.0
aF1080.0
aF940.0
aF880.0
aF1070.0
aF1090.0
aF790.0
aF1210.0
aF750.0
aF950.0
aF1120.0
aF1250.0
aF1020.0
aa(lp12
I4
aI3
aI4
aI4
aI4
aI4
aI3
aI4
aI4
aI4
aI3
aI3
aI4
aI3
aI4
aI4
aI4
aI4
aI3
aI4
aI4
aI4
aI4
aI4
aI4
aI4
aI4
aI3
aI4
aI4
aI4
aI4
aI3
aI4
aI4
aI3
aI4
aI4
aI4
aI3
aI4
aI4
aI3
aI4
aI4
aI3
aI3
aI3
aI3
aI4
aI4
aI4
aI4
aI3
aI4
aaa.