(lp0
(lp1
I15
aI15
aI15
aI15
aI15
aI15
aI15
aI15
aI15
aI15
aI15
aI15
aI15
aI15
aI15
aI15
aI15
aI15
aI15
aI15
aI15
aI15
aI15
aI15
aI15
aI15
aI15
aI15
aI15
aI15
aI15
aI15
aI15
aI15
aI15
aI15
aI15
aI15
aI15
aI15
aI15
aI15
aI15
aI15
aI15
aI15
aI15
aI15
aI15
aI15
aI15
aI15
aI15
aI15
aI15
aI15
aI15
aI15
aI15
aI15
aI15
aI15
aI15
aI15
aI15
aI15
aI15
aI15
aI15
aI15
aI15
aI15
aI15
aI15
aI15
aI15
aI15
aI15
aI15
aI15
aI15
aI15
aI15
aI15
aI15
aI15
aI15
aI15
aI15
aI15
aI15
aI15
aI15
aI15
aI15
aI15
aI15
aI15
aI15
aI15
aa(lp2
F2.3333333333333335
aF2.066666666666667
aF1.9333333333333333
aF1.9333333333333333
aF1.6
aF1.9333333333333333
aF2.0
aF2.066666666666667
aF1.9333333333333333
aF1.9333333333333333
aF2.1333333333333333
aF1.9333333333333333
aF1.8666666666666667
aF1.6666666666666667
aF1.9333333333333333
aF1.6
aF1.8666666666666667
aF1.8
aF1.9333333333333333
aF1.8
aF1.8666666666666667
aF2.066666666666667
aF2.0
aF1.9333333333333333
aF1.8666666666666667
aF1.9333333333333333
aF1.8666666666666667
aF1.8666666666666667
aF1.9333333333333333
aF2.0
aF1.9333333333333333
aF1.9333333333333333
aF1.5333333333333334
aF2.066666666666667
aF2.066666666666667
aF1.9333333333333333
aF1.9333333333333333
aF2.0
aF2.066666666666667
aF1.8666666666666667
aF1.5333333333333334
aF1.8666666666666667
aF1.9333333333333333
aF2.0
aF2.0
aF1.8
aF1.9333333333333333
aF2.0
aF1.8666666666666667
aF1.9333333333333333
aF2.066666666666667
aF1.8666666666666667
aF1.8666666666666667
aF2.1333333333333333
aF2.066666666666667
aF1.9333333333333333
aF1.8666666666666667
aF2.066666666666667
aF1.8666666666666667
aF1.6666666666666667
aF1.8
aF2.066666666666667
aF2.0
aF1.9333333333333333
aF2.0
aF2.066666666666667
aF2.1333333333333333
aF1.9333333333333333
aF1.9333333333333333
aF2.066666666666667
aF1.9333333333333333
aF2.066666666666667
aF1.5333333333333334
aF1.9333333333333333
aF1.7333333333333334
aF1.5333333333333334
aF1.7333333333333334
aF1.8666666666666667
aF1.6
aF1.9333333333333333
aF1.9333333333333333
aF1.9333333333333333
aF2.0
aF1.9333333333333333
aF1.9333333333333333
aF1.8666666666666667
aF2.0
aF1.8666666666666667
aF2.0
aF2.0
aF2.066666666666667
aF1.8
aF1.8666666666666667
aF1.9333333333333333
aF2.0
aF1.9333333333333333
aF1.8
aF1.7333333333333334
aF1.7333333333333334
aF2.0
aa(lp3
F186.795
aF333.057
aF181.998
aF165.05100000000002
aF61.961000000000006
aF163.222
aF146.232
aF354.84
aF148.27499999999998
aF261.55
aF190.28900000000002
aF171.907
aF167.41
aF108.379
aF153.221
aF86.728
aF143.74200000000002
aF123.104
aF109.499
aF159.243
aF121.872
aF210.111
aF331.572
aF179.237
aF168.86599999999999
aF141.268
aF225.957
aF139.223
aF183.827
aF168.443
aF261.04
aF179.907
aF75.67599999999999
aF195.647
aF195.529
aF319.328
aF248.04000000000002
aF258.72
aF201.755
aF84.351
aF69.09899999999999
aF135.017
aF266.35900000000004
aF171.238
aF172.27
aF150.979
aF267.781
aF260.476
aF213.138
aF180.175
aF197.37199999999999
aF106.809
aF206.162
aF180.858
aF162.547
aF143.297
aF124.43799999999999
aF280.174
aF143.882
aF87.62100000000001
aF112.42399999999999
aF188.50300000000001
aF217.32299999999998
aF148.436
aF187.004
aF200.39499999999998
aF306.64000000000004
aF108.69
aF162.184
aF198.907
aF156.18
aF203.901
aF61.102999999999994
aF185.931
aF100.851
aF65.28200000000001
aF111.839
aF221.999
aF64.723
aF118.714
aF94.019
aF155.192
aF319.849
aF159.75900000000001
aF221.739
aF149.04
aF169.712
aF166.68099999999998
aF195.302
aF141.85600000000002
aF348.51
aF162.802
aF137.75
aF167.72500000000002
aF290.237
aF204.683
aF140.755
aF89.35600000000001
aF103.874
aF336.071
aa(lp4
F40.674
aF37.35
aF39.284
aF111.55399999999999
aF38.339
aF39.788
aF38.721
aF40.813
aF39.314
aF38.041
aF41.119
aF38.336
aF40.335
aF37.364000000000004
aF39.278
aF38.830000000000005
aF75.851
aF39.113
aF79.381
aF37.936
aF38.263
aF41.644
aF38.824
aF39.739999999999995
aF37.698
aF38.968999999999994
aF37.760000000000005
aF38.144999999999996
aF39.972
aF39.801
aF40.094
aF38.752
aF36.026
aF39.982
aF38.239000000000004
aF38.476000000000006
aF38.829
aF39.753
aF39.394
aF40.03
aF37.535
aF38.618
aF39.196000000000005
aF39.626000000000005
aF40.406
aF38.684000000000005
aF39.999
aF39.324999999999996
aF37.923
aF38.193999999999996
aF40.45
aF38.125
aF39.282
aF40.157
aF38.981
aF37.894999999999996
aF74.76599999999999
aF39.687
aF39.354
aF36.45
aF114.678
aF43.936
aF40.042
aF40.501000000000005
aF39.958
aF39.674
aF39.474000000000004
aF39.11
aF38.449999999999996
aF39.179
aF44.327
aF39.215
aF37.619
aF77.899
aF39.285000000000004
aF38.318999999999996
aF38.599000000000004
aF39.716
aF38.372
aF39.760999999999996
aF39.099000000000004
aF40.27
aF40.144
aF40.22
aF78.66999999999999
aF40.448
aF39.343
aF38.315000000000005
aF39.257
aF110.149
aF40.688
aF38.634
aF38.773
aF39.247
aF37.936
aF38.769999999999996
aF37.733000000000004
aF38.330999999999996
aF38.92
aF40.101
aaI0
aI6
a(lp5
a.