(lp0
(lp1
I32
aI32
aI32
aI32
aI32
aI32
aI32
aI32
aI32
aI32
aI31
aI31
aI31
aI31
aI31
aI31
aI31
aI31
aI31
aI31
aI31
aI31
aI31
aI31
aI31
aI31
aI31
aI31
aI31
aI31
aI31
aI31
aI31
aI31
aI31
aI31
aI31
aI31
aI31
aI31
aI31
aI31
aI31
aI31
aI31
aI31
aI31
aI31
aI31
aI31
aa(lp2
F2.3125
aF2.3125
aF2.3125
aF2.3125
aF2.3125
aF2.3125
aF2.3125
aF2.3125
aF2.3125
aF2.3125
aF3.064516129032258
aF3.064516129032258
aF3.064516129032258
aF3.064516129032258
aF3.064516129032258
aF3.064516129032258
aF3.064516129032258
aF3.064516129032258
aF3.064516129032258
aF3.064516129032258
aF3.129032258064516
aF3.129032258064516
aF3.129032258064516
aF3.129032258064516
aF3.129032258064516
aF3.129032258064516
aF3.129032258064516
aF3.129032258064516
aF3.129032258064516
aF3.129032258064516
aF2.935483870967742
aF2.935483870967742
aF2.935483870967742
aF2.935483870967742
aF2.935483870967742
aF2.935483870967742
aF2.935483870967742
aF2.935483870967742
aF2.935483870967742
aF2.935483870967742
aF3.4516129032258065
aF3.4516129032258065
aF3.4516129032258065
aF3.4516129032258065
aF3.4516129032258065
aF3.4516129032258065
aF3.4516129032258065
aF3.4516129032258065
aF3.4516129032258065
aF3.4516129032258065
aa(lp3
F463.73400000000055
aF422.4800000000002
aF477.3040000000002
aF473.5109999999985
aF475.1140000000014
aF463.96100000000473
aF462.1969999999962
aF431.98799999999693
aF467.7920000000029
aF471.19699999999654
aF769.0760000000001
aF732.3710000000005
aF734.6659999999972
aF743.8700000000011
aF721.7040000000026
aF746.1409999999944
aF743.7429999999949
aF701.2699999999938
aF733.9190000000144
aF731.1910000000239
aF667.6340000000005
aF674.4529999999997
aF659.8919999999993
aF678.1529999999982
aF685.2179999999989
aF630.2699999999959
aF676.0659999999987
aF676.3599999999954
aF675.9469999999936
aF688.6680000000069
aF554.621
aF516.61
aF528.1650000000013
aF523.3190000000008
aF563.2530000000031
aF540.6759999999977
aF590.1210000000035
aF558.3799999999997
aF503.1500000000051
aF554.4870000000017
aF727.6859999999994
aF688.2980000000032
aF673.0090000000005
aF686.0110000000077
aF701.6890000000018
aF701.2659999999897
aF692.8139999999985
aF762.4580000000094
aF725.9779999999978
aF699.9580000000094
aa(lp4
F228.86499999999987
aF237.02699999999942
aF233.0110000000012
aF232.39300000000185
aF236.53799999999947
aF234.49600000000004
aF236.26900000000006
aF234.13099999999787
aF233.06199999999677
aF235.66500000000445
aF235.26700000000034
aF230.5160000000015
aF231.14799999999747
aF231.27899999999357
aF229.21700000000556
aF231.71399999999664
aF235.00500000000102
aF231.8649999999991
aF231.3339999999755
aF230.93399999999065
aF184.92200000000025
aF183.9890000000004
aF184.50400000000045
aF189.8850000000003
aF183.83500000000197
aF185.21399999999488
aF185.26499999999402
aF192.8660000000022
aF186.04399999999544
aF188.09299999999496
aF223.1539999999992
aF224.04199999999895
aF224.1180000000007
aF238.02399999999935
aF231.44200000000126
aF237.0689999999982
aF240.37700000000228
aF229.96100000000297
aF222.83500000000345
aF233.91600000000068
aF254.45699999999948
aF241.14199999999997
aF229.48300000000188
aF247.89099999999564
aF249.93299999999863
aF263.2550000000009
aF234.51000000000022
aF262.32500000000414
aF244.42499999997835
aF242.89400000000683
aa(lp5
F1284.7290000000005
aF1300.4499999999998
aF1272.714999999998
aF1300.5890000000022
aF1320.8889999999976
aF1307.5279999999977
aF1327.055999999999
aF1312.0319999999952
aF1302.1689999999994
aF1311.8550000000014
aF7260.994999999999
aF7267.718999999988
aF7217.326999999998
aF7251.492000000014
aF7231.7469999999685
aF7404.4969999999785
aF7296.343999999991
aF7338.70699999997
aF7269.7329999999465
aF7304.535000000016
aF1574.7620000000006
aF1594.012999999997
aF1593.0469999999987
aF1602.4439999999986
aF1581.8829999999975
aF1594.959000000003
aF1597.4820000000066
aF1609.3339999999969
aF1615.4039999999982
aF1643.7989999999872
aF1535.652999999998
aF1548.2559999999985
aF1541.2769999999973
aF1620.163999999999
aF1665.1430000000075
aF1708.4359999999917
aF1648.2910000000074
aF1553.6389999999967
aF1562.5460000000046
aF1561.9979999999955
aF13117.777000000006
aF13050.860000000028
aF13439.079
aF13391.246000000036
aF13212.860999999988
aF13475.937000000045
aF13272.02799999992
aF13602.397999999966
aF12944.474000000013
aF12611.620000000015
aa(lp6
F86.21499999999926
aF88.88700000000149
aF87.18399999999349
aF89.22300000000405
aF88.65700000000487
aF87.35199999999566
aF91.2580000000105
aF89.61100000000499
aF91.00000000000108
aF89.47200000000066
aF246.76700000000906
aF249.79300000000393
aF249.43000000000382
aF251.50500000000875
aF250.66900000000203
aF251.80400000002123
aF251.95200000001705
aF251.5820000000133
aF248.6109999999826
aF249.39200000000028
aF60.970999999998554
aF61.5450000000024
aF62.29799999999841
aF61.59400000000659
aF61.68199999999757
aF64.78900000000465
aF62.28899999999982
aF61.652999999999736
aF62.30200000000252
aF61.29699999999616
aF64.97300000000017
aF65.83599999999912
aF66.95799999999963
aF71.14500000000135
aF66.56799999999663
aF68.27499999999276
aF67.71799999999928
aF65.55800000000289
aF67.68900000000144
aF64.85900000001266
aF436.00800000000464
aF434.8250000000107
aF442.2840000000292
aF444.484000000017
aF449.408000000048
aF456.5370000001394
aF461.6999999999507
aF448.96700000001033
aF437.613999999968
aF439.86099999992234
aa.