(lp0
(lp1
I22
aI22
aI22
aI22
aI22
aI22
aI22
aI22
aI22
aI22
aI22
aI22
aI22
aI22
aI22
aI22
aI22
aI22
aI22
aI22
aI22
aI22
aI22
aI22
aI22
aI22
aI22
aI22
aI22
aI22
aI22
aI22
aI22
aI22
aI22
aI22
aI22
aI22
aI22
aI22
aI22
aI22
aI22
aI22
aI22
aI22
aI22
aI22
aI22
aI22
aa(lp2
F1.5454545454545454
aF1.5454545454545454
aF1.5454545454545454
aF1.5454545454545454
aF1.5454545454545454
aF1.5454545454545454
aF1.5454545454545454
aF1.5454545454545454
aF1.5454545454545454
aF1.5454545454545454
aF1.8181818181818181
aF1.8181818181818181
aF1.8181818181818181
aF1.8181818181818181
aF1.8181818181818181
aF1.8181818181818181
aF1.8181818181818181
aF1.8181818181818181
aF1.8181818181818181
aF1.8181818181818181
aF2.0
aF2.0
aF2.0
aF2.0
aF2.0
aF2.0
aF2.0
aF2.0
aF2.0
aF2.0
aF1.9090909090909092
aF1.9090909090909092
aF1.9090909090909092
aF1.9090909090909092
aF1.9090909090909092
aF1.9090909090909092
aF1.9090909090909092
aF1.9090909090909092
aF1.9090909090909092
aF1.9090909090909092
aF2.0454545454545454
aF2.0454545454545454
aF2.0454545454545454
aF2.0454545454545454
aF2.0454545454545454
aF2.0454545454545454
aF2.0454545454545454
aF2.0454545454545454
aF2.0454545454545454
aF2.0454545454545454
aa(lp3
F378.61800000000034
aF382.9560000000001
aF358.81200000000035
aF356.497000000001
aF397.75900000000064
aF398.58199999999755
aF357.0360000000008
aF337.1229999999983
aF384.7900000000024
aF393.7490000000032
aF388.9210000000003
aF431.1980000000002
aF391.9540000000001
aF398.91899999999936
aF429.5819999999999
aF425.9539999999973
aF405.41499999999786
aF388.4120000000024
aF412.27500000000106
aF419.4469999999981
aF421.7919999999995
aF443.9679999999999
aF463.8110000000015
aF419.2499999999999
aF418.25399999999746
aF431.36600000000055
aF430.8599999999991
aF451.76999999999975
aF451.823000000001
aF441.14700000000084
aF399.5949999999997
aF419.2609999999997
aF390.7589999999992
aF389.48300000000023
aF416.57100000000116
aF423.5779999999991
aF422.4969999999999
aF391.40599999999995
aF388.3550000000007
aF421.97399999999874
aF425.21600000000024
aF461.1149999999995
aF457.1100000000001
aF469.5979999999995
aF442.31200000000115
aF442.88099999999986
aF443.1270000000005
aF423.1359999999995
aF427.00600000000225
aF421.55300000000295
aa(lp4
F104.387
aF107.83100000000002
aF112.82100000000028
aF115.59600000000003
aF121.45699999999948
aF125.13400000000274
aF108.73899999999992
aF104.76500000000044
aF113.2780000000011
aF114.88599999999849
aF168.00499999999997
aF170.4889999999999
aF170.01899999999992
aF168.6759999999996
aF168.41100000000074
aF167.7590000000002
aF168.31200000000024
aF164.25800000000024
aF167.44199999999765
aF160.49100000000038
aF166.34300000000036
aF149.81899999999993
aF160.88799999999992
aF170.4360000000005
aF160.47299999999964
aF149.02300000000324
aF168.74400000000023
aF149.30999999999983
aF147.54100000000037
aF162.2160000000008
aF112.70399999999992
aF112.04999999999998
aF112.27300000000007
aF110.45800000000128
aF111.76099999999956
aF111.80900000000094
aF111.83600000000027
aF111.70699999999911
aF111.26799999999903
aF112.39199999999983
aF178.4820000000007
aF189.62600000000052
aF174.59700000000032
aF187.26600000000104
aF184.8869999999998
aF186.05499999999964
aF180.69000000000202
aF186.11100000000036
aF164.52400000000011
aF164.03700000000043
aa(lp5
F244.56300000000033
aF245.12500000000068
aF245.93600000000038
aF247.30600000000004
aF245.7119999999975
aF239.22099999999702
aF243.08800000000375
aF246.23399999999762
aF244.07700000000077
aF242.62399999999928
aF257.7780000000001
aF264.3450000000005
aF256.52900000000045
aF254.4460000000015
aF253.40499999999722
aF253.2170000000029
aF254.6570000000017
aF253.1950000000016
aF251.5439999999991
aF251.78800000000123
aF270.16200000000003
aF274.045000000001
aF271.7749999999981
aF271.1100000000002
aF272.1440000000008
aF271.7039999999997
aF270.3699999999998
aF269.321999999999
aF268.89900000000114
aF272.041999999999
aF262.8900000000005
aF262.64100000000036
aF263.8700000000007
aF263.3010000000002
aF265.2669999999979
aF262.1679999999991
aF261.692
aF262.63499999999596
aF262.6980000000003
aF262.003
aF272.6449999999998
aF276.5640000000005
aF274.75899999999956
aF277.16900000000066
aF272.3590000000016
aF273.53499999999894
aF273.2519999999994
aF275.29499999999985
aF270.57600000000195
aF272.34599999999887
aa(lp6
F24.60799999999974
aF24.13600000000038
aF24.094000000001614
aF25.34899999999851
aF24.288000000002086
aF23.676999999999282
aF24.186000000003816
aF25.083000000002187
aF24.291999999999092
aF23.66400000000013
aF26.346000000000203
aF26.910000000000878
aF26.066000000000145
aF25.06900000000023
aF25.192000000000547
aF26.499999999998636
aF24.971000000000743
aF25.234999999998564
aF25.81999999999951
aF25.593000000000643
aF38.37000000000046
aF38.21800000000053
aF38.89800000000143
aF38.00300000000156
aF37.67600000000115
aF37.323000000004214
aF37.47900000000115
aF37.63299999999958
aF38.02499999999753
aF38.77399999999653
aF25.350000000000428
aF24.584000000000827
aF25.83100000000016
aF24.699000000000026
aF25.41699999999736
aF25.596000000000174
aF25.40599999999671
aF25.249999999999773
aF24.591999999998393
aF24.82299999999782
aF51.82299999999973
aF52.7829999999998
aF52.561000000000746
aF53.67100000000136
aF52.98000000000158
aF52.51300000000114
aF50.766000000002975
aF52.388000000000545
aF50.106999999997015
aF51.70900000000955
aa.