(lp0
(lp1
F0.8402172077331592
aF1.5028137023751926
aF1.6103526890807636
aF1.7502830217954854
aF1.5677721282460224
aF1.7028470628650791
aF1.06245000531487
aF0.9434640532071431
aF1.1648585125571314
aF1.6820671856624343
aF1.2056426491006378
aF1.1929527756930893
aF1.5427303931168206
aF1.300985684738792
aF0.7634932236763488
aF1.4231063653172367
aF1.240938223986815
aF0.8514626203352125
aF0.9387171081253953
aF0.7618735599921364
aF1.582176443160883
aF1.711256353888452
aF1.390321049801828
aF1.0439830167455284
aF1.5847226016545817
aF0.8055051597955122
aF1.6964192936196654
aF1.3666948446483773
aF0.8132843307713166
aF1.5482006459935116
aF0.7079989378472629
aF1.7729613148658308
aF0.850767326399727
aF1.421406195559957
aF0.5634649779062869
aF0.9375910233652626
aF1.7447642976191253
aF0.786981984611526
aF0.7809952682669813
aF1.24505293244141
aF0.7681364606551397
aF0.8151013345754548
aF1.1366648239446306
aF1.5858720289084365
aF1.6265514014266826
aF1.597480448303572
aF1.6784080649915456
aF0.9624113922888278
aF0.6817099457641446
aF1.7522417219286797
aF0.6628682061122085
aF1.0156136648434644
aa(lp2
F0.8402172077331592
aF1.1929527756930893
aF1.300985684738792
aF0.8514626203352125
aF0.9387171081253953
aF0.8132843307713166
aF0.7079989378472629
aF0.850767326399727
aF0.9375910233652626
aF0.786981984611526
aF0.8151013345754548
aF0.9624113922888278
aF0.6817099457641446
aa(lp3
F1.8288251238442186
aF1.9750239652835957
aF1.834801766727568
aF1.879647029039388
aF1.9506003340056826
aF1.849832380014074
aF1.8560296155523361
aF1.8518140824988123
aa(lp4
F1.5028137023751926
aF1.6103526890807636
aF1.7502830217954854
aF1.5677721282460224
aF1.7028470628650791
aF1.8288251238442186
aF1.06245000531487
aF0.9434640532071431
aF1.1648585125571314
aF1.6820671856624343
aF1.2056426491006378
aF1.9750239652835957
aF1.834801766727568
aF1.5427303931168206
aF0.7634932236763488
aF1.4231063653172367
aF1.240938223986815
aF0.7618735599921364
aF1.582176443160883
aF1.711256353888452
aF1.390321049801828
aF1.0439830167455284
aF1.879647029039388
aF1.5847226016545817
aF0.8055051597955122
aF1.6964192936196654
aF1.3666948446483773
aF1.9506003340056826
aF1.849832380014074
aF1.8560296155523361
aF1.5482006459935116
aF1.7729613148658308
aF1.421406195559957
aF0.5634649779062869
aF1.7447642976191253
aF0.7809952682669813
aF1.24505293244141
aF0.7681364606551397
aF1.1366648239446306
aF1.5858720289084365
aF1.6265514014266826
aF1.597480448303572
aF1.6784080649915456
aF1.7522417219286797
aF0.6628682061122085
aF1.0156136648434644
aF1.8518140824988123
aa(lp5
I19
aI11
aI10
aI9
aI11
aI10
aI15
aI17
aI14
aI10
aI14
aI14
aI11
aI13
aI21
aI12
aI13
aI19
aI17
aI21
aI10
aI10
aI12
aI16
aI10
aI20
aI10
aI12
aI20
aI11
aI23
aI9
aI19
aI12
aI28
aI17
aI10
aI21
aI21
aI13
aI21
aI20
aI14
aI10
aI10
aI10
aI10
aI17
aI24
aI9
aI24
aI16
aa(lp6
I20
aI15
aI14
aI20
aI18
aI21
aI24
aI20
aI18
aI22
aI21
aI18
aI25
aa(lp7
(lp8
I9
aI8
aI9
aI9
aI9
aI9
aI9
aI9
aa(lp9
I4
aI4
aI4
aI4
aI4
aI4
aI4
aI4
aaa(lp10
(lp11
I12
aI11
aI10
aI12
aI11
aI10
aI16
aI18
aI15
aI11
aI15
aI9
aI10
aI12
aI22
aI13
aI14
aI22
aI11
aI11
aI13
aI17
aI10
aI11
aI21
aI11
aI13
aI10
aI10
aI10
aI12
aI10
aI13
aI29
aI11
aI22
aI14
aI22
aI15
aI11
aI11
aI11
aI11
aI10
aI25
aI17
aI10
aa(lp12
I4
aI4
aI4
aI4
aI4
aI4
aI2
aI2
aI2
aI4
aI2
aI4
aI4
aI4
aI2
aI4
aI2
aI2
aI4
aI4
aI4
aI2
aI4
aI4
aI3
aI4
aI4
aI4
aI4
aI4
aI4
aI4
aI4
aI2
aI4
aI2
aI2
aI2
aI4
aI4
aI4
aI4
aI4
aI4
aI2
aI2
aI4
aaa.