(lp0
(lp1
I16
aI16
aI16
aI16
aI16
aI16
aI16
aI16
aI16
aI16
aI16
aI16
aI16
aI16
aI16
aI16
aI16
aI16
aI16
aI16
aI16
aI16
aI16
aI16
aI16
aI16
aI16
aI16
aI16
aI16
aI16
aI16
aI16
aI16
aI16
aI16
aI16
aI16
aI16
aI16
aI16
aI16
aI16
aI16
aI16
aI16
aI16
aI16
aI16
aI16
aI16
aI16
aI16
aI16
aI16
aI16
aI16
aI16
aI16
aI16
aI16
aI16
aI16
aI16
aI16
aI16
aI16
aI16
aI16
aI16
aI16
aI16
aI16
aI16
aI16
aI16
aI16
aI16
aI16
aI16
aI16
aI16
aI16
aI16
aI16
aI16
aI16
aI16
aI16
aI16
aI16
aI16
aI16
aI16
aI16
aI16
aI16
aI16
aI16
aI16
aa(lp2
F2.75
aF2.75
aF2.75
aF2.75
aF2.75
aF2.75
aF2.75
aF2.75
aF2.75
aF2.75
aF2.75
aF2.75
aF2.75
aF2.75
aF2.75
aF2.75
aF2.75
aF2.75
aF2.75
aF2.75
aF2.75
aF2.75
aF2.75
aF2.75
aF2.75
aF2.75
aF2.75
aF2.75
aF2.75
aF2.75
aF2.75
aF2.75
aF2.75
aF2.75
aF2.75
aF2.75
aF2.75
aF2.75
aF2.75
aF2.75
aF2.75
aF2.75
aF2.75
aF2.75
aF2.75
aF2.75
aF2.75
aF2.75
aF2.75
aF2.75
aF2.75
aF2.75
aF2.75
aF2.75
aF2.75
aF2.75
aF2.75
aF2.75
aF2.75
aF2.75
aF2.75
aF2.75
aF2.75
aF2.75
aF2.75
aF2.75
aF2.75
aF2.75
aF2.75
aF2.75
aF2.75
aF2.75
aF2.75
aF2.75
aF2.75
aF2.75
aF2.75
aF2.75
aF2.75
aF2.75
aF2.75
aF2.75
aF2.75
aF2.75
aF2.75
aF2.75
aF2.75
aF2.75
aF2.75
aF2.75
aF2.75
aF2.75
aF2.75
aF2.75
aF2.75
aF2.75
aF2.75
aF2.75
aF2.75
aF2.75
aa(lp3
F151.006
aF151.631
aF154.95000000000002
aF154.174
aF155.57399999999998
aF160.569
aF154.82000000000002
aF149.85299999999998
aF153.076
aF151.76999999999998
aF153.877
aF151.543
aF155.395
aF153.414
aF151.74099999999999
aF160.09300000000002
aF153.07100000000003
aF150.855
aF150.691
aF152.985
aF155.53
aF150.674
aF161.881
aF151.566
aF149.968
aF151.595
aF161.058
aF147.698
aF159.706
aF152.2
aF155.164
aF151.721
aF154.638
aF151.872
aF153.631
aF151.595
aF150.721
aF152.596
aF159.792
aF154.803
aF154.692
aF162.994
aF152.825
aF152.708
aF157.913
aF151.761
aF153.275
aF150.742
aF151.077
aF151.091
aF149.847
aF155.777
aF151.291
aF152.371
aF162.658
aF151.43699999999998
aF160.81500000000003
aF152.41199999999998
aF160.518
aF150.834
aF152.113
aF151.98999999999998
aF149.90300000000002
aF153.511
aF145.94099999999997
aF151.308
aF158.03400000000002
aF156.40200000000002
aF155.978
aF161.042
aF150.969
aF150.953
aF154.17600000000002
aF152.845
aF150.952
aF156.20899999999997
aF151.87300000000002
aF156.95999999999998
aF150.953
aF157.67800000000003
aF153.46699999999998
aF151.46
aF151.571
aF152.502
aF153.82299999999998
aF151.482
aF154.969
aF144.804
aF148.811
aF151.064
aF153.26500000000001
aF148.704
aF152.257
aF152.917
aF151.297
aF152.616
aF150.56900000000002
aF151.513
aF151.407
aF154.0
aa(lp4
F42.83
aF41.863
aF42.178
aF42.836
aF42.415
aF42.296
aF42.897999999999996
aF42.868
aF42.493
aF42.425
aF43.606
aF43.712
aF42.117000000000004
aF43.161
aF43.062999999999995
aF42.489
aF43.105
aF42.162
aF42.933
aF42.687999999999995
aF42.945
aF42.382999999999996
aF42.462
aF43.12
aF42.561
aF41.729
aF41.842999999999996
aF43.147999999999996
aF42.925
aF42.17
aF43.015
aF42.497
aF42.361000000000004
aF43.797999999999995
aF42.028000000000006
aF42.482
aF43.017
aF42.704
aF41.456
aF43.059
aF42.577999999999996
aF42.69
aF42.772
aF43.359
aF42.565
aF42.756
aF43.028999999999996
aF43.305
aF43.573
aF43.109
aF42.235
aF42.886
aF43.217999999999996
aF43.43000000000001
aF42.227000000000004
aF42.202000000000005
aF42.335
aF42.117000000000004
aF41.495
aF42.061
aF42.623000000000005
aF43.299
aF42.274
aF42.42400000000001
aF43.013999999999996
aF42.162
aF42.213
aF41.984
aF41.915
aF43.027
aF42.751
aF43.081
aF42.732
aF42.937999999999995
aF42.772999999999996
aF43.382
aF42.261
aF41.982
aF42.268
aF43.028
aF41.85
aF42.67
aF41.76499999999999
aF42.590999999999994
aF42.162
aF42.266999999999996
aF42.116
aF42.486999999999995
aF42.132999999999996
aF42.235
aF42.907000000000004
aF43.152
aF43.702
aF43.515
aF42.505
aF43.458999999999996
aF42.312000000000005
aF43.588
aF41.993
aF42.333999999999996
aaI0
aI0
a(lp5
a.