(lp0
(lp1
I21
aI21
aI21
aI21
aI21
aI21
aI21
aI21
aI21
aI21
aI21
aI21
aI21
aI21
aI21
aI21
aI21
aI21
aI21
aI21
aI21
aI21
aI21
aI21
aI21
aI21
aI21
aI21
aI21
aI21
aI21
aI21
aI21
aI21
aI21
aI21
aI21
aI21
aI21
aI21
aI21
aI21
aI21
aI21
aI21
aI21
aI21
aI21
aI21
aI21
aa(lp2
F1.2857142857142858
aF1.2857142857142858
aF1.2857142857142858
aF1.2857142857142858
aF1.2857142857142858
aF1.2857142857142858
aF1.2857142857142858
aF1.2857142857142858
aF1.2857142857142858
aF1.2857142857142858
aF1.2857142857142858
aF1.2857142857142858
aF1.2857142857142858
aF1.2857142857142858
aF1.2857142857142858
aF1.2857142857142858
aF1.2857142857142858
aF1.2857142857142858
aF1.2857142857142858
aF1.2857142857142858
aF1.2857142857142858
aF1.2857142857142858
aF1.2857142857142858
aF1.2857142857142858
aF1.2857142857142858
aF1.2857142857142858
aF1.2857142857142858
aF1.2857142857142858
aF1.2857142857142858
aF1.2857142857142858
aF1.2857142857142858
aF1.2857142857142858
aF1.2857142857142858
aF1.2857142857142858
aF1.2857142857142858
aF1.2857142857142858
aF1.2857142857142858
aF1.2857142857142858
aF1.2857142857142858
aF1.2857142857142858
aF1.2857142857142858
aF1.2857142857142858
aF1.2857142857142858
aF1.2857142857142858
aF1.2857142857142858
aF1.2857142857142858
aF1.2857142857142858
aF1.2857142857142858
aF1.2857142857142858
aF1.2857142857142858
aa(lp3
F452.2520000000001
aF308.7049999999998
aF307.34499999999974
aF336.7179999999994
aF337.6429999999999
aF309.29699999999906
aF334.00200000000166
aF343.5699999999997
aF307.3740000000029
aF335.9750000000013
aF564.673
aF312.0940000000001
aF310.11299999999943
aF335.4780000000002
aF338.5290000000012
aF307.0129999999995
aF333.8189999999983
aF337.2330000000012
aF306.78299999999933
aF333.9529999999975
aF466.5469999999998
aF308.02
aF309.40100000000115
aF330.0839999999994
aF333.4329999999994
aF309.0620000000008
aF338.7080000000004
aF336.8409999999997
aF309.30799999999795
aF331.0500000000012
aF522.037
aF309.02800000000053
aF308.345000000001
aF333.08099999999996
aF338.928000000001
aF307.55899999999946
aF338.9399999999973
aF344.656999999998
aF309.26900000000046
aF334.9149999999987
aF474.80800000000033
aF311.82900000000035
aF309.4940000000008
aF340.93200000000047
aF338.39799999999974
aF311.6139999999987
aF343.1020000000018
aF342.8649999999998
aF308.956000000002
aF335.3590000000004
aa(lp4
F303.5420000000002
aF336.61799999999965
aF305.4129999999997
aF307.66200000000055
aF306.35100000000114
aF308.66900000000186
aF306.8049999999971
aF309.1480000000004
aF308.00699999999995
aF308.56400000000053
aF306.8970000000002
aF332.5079999999998
aF309.36600000000067
aF313.1489999999992
aF306.36499999999955
aF307.2599999999994
aF305.4699999999997
aF305.34199999999953
aF306.6040000000001
aF309.86400000000106
aF303.99000000000063
aF328.07800000000054
aF301.7179999999993
aF301.4779999999995
aF302.8209999999998
aF305.2930000000007
aF302.02399999999943
aF304.19099999999946
aF300.76699999999687
aF301.05000000000007
aF308.4860000000003
aF330.5769999999999
aF305.1330000000014
aF306.4169999999997
aF308.148000000001
aF307.52599999999927
aF310.4049999999994
aF307.9789999999996
aF305.24099999999873
aF307.72800000000086
aF308.5569999999995
aF336.90900000000033
aF305.50999999999993
aF308.5139999999989
aF307.50499999999903
aF309.92200000000025
aF311.8259999999999
aF309.2030000000001
aF308.6909999999996
aF307.9140000000002
aa(lp5
F249.26699999999968
aF249.75099999999983
aF249.79100000000008
aF250.18099999999956
aF249.76400000000257
aF250.28999999999968
aF248.22299999999942
aF250.9510000000006
aF250.1819999999988
aF250.92099999999817
aF248.57900000000032
aF249.11599999999987
aF250.8909999999993
aF250.06400000000008
aF251.36499999999984
aF249.72400000000405
aF251.34200000000106
aF250.00100000000103
aF249.45900000000165
aF249.10799999999966
aF253.5899999999991
aF249.3860000000003
aF250.51599999999928
aF250.21800000000027
aF249.4750000000003
aF248.9639999999973
aF249.3190000000034
aF249.4759999999978
aF247.98700000000196
aF248.9510000000017
aF250.56800000000035
aF249.64500000000012
aF249.73100000000062
aF250.49399999999977
aF247.84900000000044
aF248.857000000001
aF250.45000000000073
aF249.78599999999673
aF250.78500000000048
aF250.56000000000012
aF253.09000000000114
aF249.95399999999978
aF252.4779999999982
aF252.085000000001
aF250.01100000000065
aF252.8959999999998
aF251.54099999999957
aF251.11800000000173
aF250.56299999999965
aF251.69899999999856
aa(lp6
F367.553
aF359.85400000000124
aF364.6670000000007
aF370.03200000000015
aF364.2199999999996
aF367.6210000000033
aF362.6520000000006
aF367.03100000000074
aF365.94399999999894
aF364.4950000000016
aF364.1070000000006
aF364.4290000000003
aF368.9339999999994
aF361.0339999999983
aF364.81499999999835
aF362.49100000000567
aF360.92400000000424
aF363.7859999999975
aF364.6080000000005
aF366.2819999999982
aF362.4079999999994
aF357.9879999999997
aF362.63100000000213
aF356.2940000000001
aF358.98699999999906
aF357.6349999999984
aF355.62799999999936
aF362.1089999999967
aF358.08400000000165
aF357.2419999999994
aF360.03199999999947
aF364.7049999999998
aF360.0389999999986
aF364.55699999999956
aF363.3789999999983
aF364.79200000000134
aF369.19999999999925
aF366.18100000000095
aF363.7909999999991
aF368.9460000000011
aF363.313999999999
aF364.6260000000003
aF369.32700000000017
aF362.7250000000011
aF365.3639999999996
aF372.8229999999968
aF366.5319999999994
aF363.5800000000024
aF364.25599999999747
aF365.2839999999955
aa.