(lp0
(lp1
I13
aI13
aI13
aI13
aI13
aI13
aI13
aI13
aI13
aI13
aI13
aI13
aI13
aI13
aI13
aI13
aI13
aI13
aI13
aI13
aI13
aI13
aI13
aI13
aI13
aI13
aI13
aI13
aI13
aI13
aI13
aI13
aI13
aI13
aI13
aI13
aI13
aI13
aI13
aI13
aI13
aI13
aI13
aI13
aI13
aI13
aI13
aI13
aI13
aI13
aa(lp2
F2.5384615384615383
aF2.5384615384615383
aF2.5384615384615383
aF2.5384615384615383
aF2.5384615384615383
aF2.5384615384615383
aF2.5384615384615383
aF2.5384615384615383
aF2.5384615384615383
aF2.5384615384615383
aF2.5384615384615383
aF2.5384615384615383
aF2.5384615384615383
aF2.5384615384615383
aF2.5384615384615383
aF2.5384615384615383
aF2.5384615384615383
aF2.5384615384615383
aF2.5384615384615383
aF2.5384615384615383
aF2.5384615384615383
aF2.5384615384615383
aF2.5384615384615383
aF2.5384615384615383
aF2.5384615384615383
aF2.5384615384615383
aF2.5384615384615383
aF2.5384615384615383
aF2.5384615384615383
aF2.5384615384615383
aF2.5384615384615383
aF2.5384615384615383
aF2.5384615384615383
aF2.5384615384615383
aF2.5384615384615383
aF2.5384615384615383
aF2.5384615384615383
aF2.5384615384615383
aF2.5384615384615383
aF2.5384615384615383
aF2.5384615384615383
aF2.5384615384615383
aF2.5384615384615383
aF2.5384615384615383
aF2.5384615384615383
aF2.5384615384615383
aF2.5384615384615383
aF2.5384615384615383
aF2.5384615384615383
aF2.5384615384615383
aa(lp3
F704.644
aF330.5569999999998
aF346.2250000000005
aF343.17000000000064
aF344.48899999999935
aF344.61100000000044
aF371.14700000000056
aF343.751000000001
aF344.6339999999992
aF341.34599999999796
aF612.9390000000003
aF330.1090000000002
aF337.8180000000004
aF342.88499999999897
aF339.9340000000013
aF363.2080000000002
aF336.90199999999845
aF338.08699999999806
aF341.22499999999786
aF356.4149999999984
aF627.2980000000001
aF317.2310000000005
aF356.45799999999997
aF326.4130000000005
aF354.3749999999992
aF326.08300000000054
aF353.43699999999956
aF325.3829999999987
aF326.5010000000004
aF326.589000000002
aF605.8759999999999
aF338.0200000000002
aF340.6469999999988
aF337.8250000000005
aF340.86700000000116
aF366.81199999999944
aF339.85000000000196
aF341.3970000000006
aF339.19500000000016
aF369.5109999999993
aF604.1820000000002
aF341.5930000000005
aF377.35699999999997
aF341.6560000000004
aF368.32500000000044
aF337.6279999999987
aF365.6520000000007
aF343.43700000000155
aF338.29800000000176
aF346.233999999999
aa(lp4
F318.53399999999965
aF320.6130000000007
aF321.4869999999994
aF329.930000000001
aF321.43399999999997
aF343.2650000000024
aF318.6619999999998
aF323.442
aF321.85800000000245
aF320.1670000000014
aF306.09599999999926
aF312.5309999999999
aF312.7110000000002
aF312.2690000000006
aF327.3479999999989
aF311.16600000000005
aF314.18700000000047
aF312.2250000000015
aF312.0979999999989
aF313.85299999999813
aF329.7419999999995
aF325.43100000000004
aF325.6099999999993
aF328.50299999999953
aF327.02200000000124
aF327.23399999999714
aF325.9340000000002
aF324.7119999999981
aF346.823999999998
aF322.2730000000027
aF311.56200000000035
aF326.2679999999998
aF334.9770000000003
aF330.0650000000012
aF351.6739999999992
aF331.28999999999917
aF331.430000000001
aF332.33999999999855
aF331.1779999999977
aF333.0580000000012
aF301.05700000000013
aF314.00000000000006
aF313.9570000000003
aF317.43699999999995
aF313.42800000000005
aF313.5060000000003
aF315.3639999999989
aF313.7179999999979
aF339.2020000000002
aF314.44099999999867
aa(lp5
F199.49499999999975
aF225.9429999999991
aF198.27200000000113
aF210.2820000000012
aF197.87700000000007
aF199.4209999999974
aF199.11499999999904
aF199.7349999999969
aF197.6489999999984
aF199.90100000000055
aF173.52400000000137
aF172.83000000000115
aF173.8749999999989
aF172.03799999999882
aF174.42199999999985
aF171.40500000000003
aF172.02999999999946
aF173.1829999999981
aF172.3060000000025
aF174.5300000000043
aF174.59699999999944
aF173.8459999999993
aF174.37400000000025
aF172.8909999999999
aF174.38999999999893
aF172.9960000000048
aF172.95999999999978
aF172.73199999999633
aF173.2289999999992
aF173.4700000000018
aF181.65600000000026
aF180.30600000000163
aF181.3610000000008
aF180.6049999999999
aF180.4039999999958
aF180.72099999999836
aF180.11600000000172
aF180.34600000000012
aF182.46600000000157
aF179.89299999999986
aF177.84900000000104
aF176.41300000000012
aF175.72900000000226
aF174.6830000000017
aF174.318999999997
aF174.1149999999969
aF174.25499999999872
aF174.10100000000384
aF174.08400000000412
aF175.21600000000248
aa(lp6
F512.8639999999996
aF485.1820000000018
aF493.61699999999684
aF491.93000000000177
aF494.3479999999987
aF487.8309999999963
aF534.9040000000009
aF487.3299999999965
aF511.4069999999948
aF476.5979999999992
aF594.6400000000001
aF570.3940000000003
aF568.8910000000008
aF567.774
aF568.9829999999993
aF589.1669999999997
aF561.6070000000022
aF563.6250000000018
aF562.3990000000027
aF563.8010000000015
aF473.00300000000027
aF476.70400000000154
aF476.70199999999954
aF472.2920000000013
aF473.01999999999816
aF472.8579999999951
aF471.3199999999987
aF475.8890000000022
aF472.47099999999875
aF494.5109999999993
aF588.6379999999996
aF564.9070000000015
aF564.8769999999992
aF567.7069999999986
aF560.7420000000011
aF589.4379999999977
aF564.8799999999987
aF565.0860000000043
aF565.411000000001
aF563.5049999999958
aF475.4860000000001
aF476.3800000000007
aF475.185999999999
aF476.46300000000076
aF470.9879999999949
aF471.4869999999962
aF471.0000000000001
aF472.2980000000021
aF470.7770000000054
aF495.24300000000216
aa.