(lp0
(lp1
I18
aI18
aI18
aI18
aI18
aI18
aI18
aI18
aI18
aI18
aI18
aI18
aI18
aI18
aI18
aI18
aI18
aI18
aI18
aI18
aI18
aI18
aI18
aI18
aI18
aI18
aI18
aI18
aI18
aI18
aI18
aI18
aI18
aI18
aI18
aI18
aI18
aI18
aI18
aI18
aI18
aI18
aI18
aI18
aI18
aI18
aI18
aI18
aI18
aI18
aa(lp2
F1.2222222222222223
aF1.2222222222222223
aF1.2222222222222223
aF1.2222222222222223
aF1.2222222222222223
aF1.2222222222222223
aF1.2222222222222223
aF1.2222222222222223
aF1.2222222222222223
aF1.2222222222222223
aF1.2222222222222223
aF1.2222222222222223
aF1.2222222222222223
aF1.2222222222222223
aF1.2222222222222223
aF1.2222222222222223
aF1.2222222222222223
aF1.2222222222222223
aF1.2222222222222223
aF1.2222222222222223
aF1.2222222222222223
aF1.2222222222222223
aF1.2222222222222223
aF1.2222222222222223
aF1.2222222222222223
aF1.2222222222222223
aF1.2222222222222223
aF1.2222222222222223
aF1.2222222222222223
aF1.2222222222222223
aF1.2222222222222223
aF1.2222222222222223
aF1.2222222222222223
aF1.2222222222222223
aF1.2222222222222223
aF1.2222222222222223
aF1.2222222222222223
aF1.2222222222222223
aF1.2222222222222223
aF1.2222222222222223
aF1.2222222222222223
aF1.2222222222222223
aF1.2222222222222223
aF1.2222222222222223
aF1.2222222222222223
aF1.2222222222222223
aF1.2222222222222223
aF1.2222222222222223
aF1.2222222222222223
aF1.2222222222222223
aa(lp3
F73.71
aF70.165
aF69.383
aF69.95800000000001
aF70.381
aF71.66
aF69.09800000000001
aF71.089
aF70.888
aF70.951
aF73.083
aF68.64399999999999
aF69.93299999999999
aF70.313
aF70.706
aF69.64099999999999
aF66.271
aF66.183
aF67.676
aF68.562
aF71.587
aF68.846
aF68.51
aF67.333
aF68.842
aF72.414
aF68.615
aF66.97200000000001
aF68.163
aF69.513
aF70.744
aF68.993
aF67.491
aF68.24
aF68.827
aF70.725
aF68.491
aF68.36699999999999
aF66.577
aF67.251
aF71.28099999999999
aF69.405
aF70.119
aF67.35
aF69.365
aF71.48100000000001
aF69.028
aF68.315
aF67.57100000000001
aF68.232
aa(lp4
F68.68299999999999
aF67.634
aF67.355
aF68.108
aF70.573
aF70.228
aF70.91799999999999
aF70.523
aF72.489
aF74.919
aF70.39
aF68.757
aF71.06400000000001
aF69.34700000000001
aF68.893
aF68.978
aF66.594
aF69.077
aF66.699
aF69.161
aF68.09
aF68.19600000000001
aF67.73
aF67.08
aF67.655
aF67.651
aF67.829
aF67.53399999999999
aF68.314
aF68.245
aF66.263
aF67.57199999999999
aF66.79599999999999
aF68.54100000000001
aF67.77900000000001
aF68.136
aF67.494
aF68.97399999999999
aF69.164
aF67.402
aF69.83399999999999
aF73.029
aF69.11399999999999
aF69.74600000000001
aF67.078
aF68.176
aF68.65499999999999
aF69.196
aF67.184
aF68.735
aa(lp5
F34.234
aF35.138000000000005
aF34.357
aF34.965
aF35.145999999999994
aF34.97
aF35.738
aF36.385
aF36.845000000000006
aF36.192
aF36.437999999999995
aF35.369
aF36.153
aF36.026
aF34.994
aF35.251999999999995
aF34.692
aF34.131
aF34.313
aF34.465
aF34.658
aF35.004
aF35.287
aF34.272999999999996
aF34.847
aF35.3
aF34.507000000000005
aF34.571
aF34.83
aF34.809
aF35.2
aF34.646
aF34.417
aF34.859
aF34.419
aF35.766
aF35.183
aF34.457
aF35.3
aF34.733
aF35.467
aF35.986999999999995
aF35.386
aF34.69499999999999
aF35.05
aF35.019
aF35.272999999999996
aF34.910999999999994
aF35.455
aF35.214000000000006
aa(lp6
F35.491
aF35.074
aF35.268
aF34.465
aF34.577999999999996
aF35.426
aF34.512
aF36.706
aF38.442
aF37.686
aF36.513999999999996
aF34.804
aF35.967
aF36.351
aF34.668
aF34.56999999999999
aF34.32
aF34.961
aF34.748000000000005
aF34.37
aF35.845
aF35.107
aF35.439
aF35.156
aF34.772
aF34.232
aF35.007999999999996
aF34.916000000000004
aF34.861999999999995
aF34.605
aF34.639
aF35.23
aF34.319
aF34.391999999999996
aF34.72
aF34.653999999999996
aF34.048
aF34.638000000000005
aF34.903000000000006
aF34.045
aF35.436
aF35.713
aF35.166000000000004
aF35.606
aF35.17
aF34.413
aF35.076
aF34.82
aF35.282000000000004
aF35.354
aa(lp7
I0
aI0
aI0
aI0
aI0
aI0
aI0
aI0
aI0
aI0
aI0
aI0
aI0
aI0
aI0
aI0
aI0
aI0
aI0
aI0
aI0
aI0
aI0
aI0
aI0
aI0
aI0
aI0
aI0
aI0
aI0
aI0
aI0
aI0
aI0
aI0
aI0
aI0
aI0
aI0
aI0
aI0
aI0
aI0
aI0
aI0
aI0
aI0
aI0
aI0
aa.