(lp0
(lp1
I14
aI14
aI14
aI14
aI14
aI14
aI14
aI14
aI14
aI14
aI14
aI14
aI14
aI14
aI14
aI14
aI14
aI14
aI14
aI14
aI14
aI14
aI14
aI14
aI14
aI14
aI14
aI14
aI14
aI14
aI14
aI14
aI14
aI14
aI14
aI14
aI14
aI14
aI14
aI14
aI14
aI14
aI14
aI14
aI14
aI14
aI14
aI14
aI14
aI14
aa(lp2
F2.7857142857142856
aF2.7857142857142856
aF2.7857142857142856
aF2.7857142857142856
aF2.7857142857142856
aF2.7857142857142856
aF2.7857142857142856
aF2.7857142857142856
aF2.7857142857142856
aF2.7857142857142856
aF2.7857142857142856
aF2.7857142857142856
aF2.7857142857142856
aF2.7857142857142856
aF2.7857142857142856
aF2.7857142857142856
aF2.7857142857142856
aF2.7857142857142856
aF2.7857142857142856
aF2.7857142857142856
aF2.7857142857142856
aF2.7857142857142856
aF2.7857142857142856
aF2.7857142857142856
aF2.7857142857142856
aF2.7857142857142856
aF2.7857142857142856
aF2.7857142857142856
aF2.7857142857142856
aF2.7857142857142856
aF2.7857142857142856
aF2.7857142857142856
aF2.7857142857142856
aF2.7857142857142856
aF2.7857142857142856
aF2.7857142857142856
aF2.7857142857142856
aF2.7857142857142856
aF2.7857142857142856
aF2.7857142857142856
aF2.7857142857142856
aF2.7857142857142856
aF2.7857142857142856
aF2.7857142857142856
aF2.7857142857142856
aF2.7857142857142856
aF2.7857142857142856
aF2.7857142857142856
aF2.7857142857142856
aF2.7857142857142856
aa(lp3
F305.389
aF293.604
aF310.52200000000005
aF299.24
aF300.213
aF295.602
aF303.252
aF297.399
aF296.928
aF288.71200000000005
aF297.507
aF296.03000000000003
aF294.598
aF295.696
aF297.462
aF288.262
aF294.792
aF300.411
aF284.498
aF287.902
aF301.849
aF294.017
aF295.966
aF296.576
aF290.645
aF289.556
aF324.322
aF292.314
aF314.302
aF304.516
aF294.89
aF298.868
aF287.954
aF290.238
aF296.276
aF300.248
aF292.027
aF285.043
aF299.678
aF296.43199999999996
aF301.613
aF294.124
aF290.43
aF289.111
aF295.755
aF300.722
aF293.065
aF302.978
aF300.86800000000005
aF299.103
aa(lp4
F287.935
aF293.618
aF303.24899999999997
aF304.507
aF299.56100000000004
aF303.616
aF283.332
aF295.017
aF297.911
aF294.45300000000003
aF290.468
aF285.04
aF288.30499999999995
aF294.985
aF290.153
aF291.324
aF286.852
aF297.29
aF295.76599999999996
aF290.077
aF294.051
aF290.97499999999997
aF297.91200000000003
aF298.401
aF297.59799999999996
aF295.70000000000005
aF291.83500000000004
aF294.41200000000003
aF295.82000000000005
aF298.301
aF295.431
aF297.12899999999996
aF298.802
aF287.48699999999997
aF297.676
aF305.882
aF284.031
aF298.414
aF291.025
aF296.368
aF293.65599999999995
aF301.818
aF293.31800000000004
aF297.176
aF291.082
aF285.273
aF292.662
aF292.29
aF294.68699999999995
aF298.71
aa(lp5
F30.782
aF31.589
aF31.334
aF30.869
aF30.685
aF32.034
aF30.961
aF31.655
aF31.273000000000003
aF31.081999999999997
aF30.811
aF30.168
aF30.62
aF30.536
aF31.834
aF30.504
aF30.986
aF30.844
aF31.074
aF31.056
aF31.127
aF30.642
aF31.356
aF30.39
aF31.029999999999998
aF31.115000000000002
aF30.874
aF31.489000000000004
aF31.739000000000004
aF30.37
aF31.191
aF31.053
aF31.139
aF30.486
aF30.392
aF30.224999999999998
aF30.773
aF31.576
aF30.172
aF30.016000000000002
aF30.793999999999997
aF30.585
aF30.043
aF29.891000000000002
aF30.874
aF31.097
aF31.220000000000002
aF30.749
aF31.186
aF30.256999999999998
aa(lp6
F31.041
aF31.197
aF32.141999999999996
aF31.092000000000002
aF31.37
aF31.026999999999997
aF32.382
aF32.009
aF31.339
aF31.601999999999997
aF30.521
aF30.496
aF30.904999999999998
aF31.134999999999998
aF30.531
aF30.751
aF31.037
aF30.258
aF31.265
aF31.05
aF30.8
aF30.842000000000002
aF31.046
aF31.124
aF30.102
aF31.035
aF31.176
aF30.781
aF30.573
aF30.914
aF30.453999999999997
aF30.231
aF36.905
aF31.406999999999996
aF30.406
aF30.153
aF30.356
aF31.227999999999998
aF30.526
aF30.195
aF30.643
aF29.631999999999998
aF31.325
aF30.808
aF30.658
aF30.333
aF31.248
aF31.150000000000002
aF30.744
aF30.786
aa(lp7
I0
aI0
aI0
aI0
aI0
aI0
aI0
aI0
aI0
aI0
aI0
aI0
aI0
aI0
aI0
aI0
aI0
aI0
aI0
aI0
aI0
aI0
aI0
aI0
aI0
aI0
aI0
aI0
aI0
aI0
aI0
aI0
aI0
aI0
aI0
aI0
aI0
aI0
aI0
aI0
aI0
aI0
aI0
aI0
aI0
aI0
aI0
aI0
aI0
aI0
aa.