(lp0
(lp1
I16
aI16
aI16
aI16
aI16
aI16
aI16
aI16
aI16
aI16
aI16
aI16
aI16
aI16
aI16
aI16
aI16
aI16
aI16
aI16
aI16
aI16
aI16
aI16
aI16
aI16
aI16
aI16
aI16
aI16
aI16
aI16
aI16
aI16
aI16
aI16
aI16
aI16
aI16
aI16
aI16
aI16
aI16
aI16
aI16
aI16
aI16
aI16
aI16
aI16
aa(lp2
F1.9375
aF1.9375
aF1.9375
aF1.9375
aF1.9375
aF1.8125
aF1.8125
aF1.8125
aF1.8125
aF1.8125
aF1.8125
aF1.8125
aF1.8125
aF1.8125
aF1.8125
aF1.8125
aF1.8125
aF1.8125
aF1.8125
aF1.8125
aF1.875
aF1.875
aF1.875
aF1.875
aF1.875
aF1.875
aF1.875
aF1.875
aF1.875
aF1.875
aF1.75
aF1.75
aF1.75
aF1.75
aF1.75
aF1.875
aF1.875
aF1.875
aF1.875
aF1.875
aF1.875
aF1.875
aF1.875
aF1.875
aF1.875
aF2.0625
aF2.0625
aF2.0625
aF2.0625
aF2.0625
aa(lp3
F244.397
aF243.41899999999998
aF236.217
aF244.066
aF246.47
aF126.80900000000001
aF120.241
aF118.60600000000001
aF119.108
aF122.311
aF140.791
aF135.066
aF136.052
aF135.353
aF137.21800000000002
aF136.631
aF134.935
aF134.16400000000002
aF135.05700000000002
aF133.612
aF187.089
aF185.263
aF180.91299999999998
aF182.35899999999998
aF180.96300000000002
aF137.584
aF142.87
aF139.087
aF139.01
aF141.11399999999998
aF154.995
aF139.84199999999998
aF148.342
aF138.84199999999998
aF139.558
aF155.76100000000002
aF155.654
aF155.315
aF150.93599999999998
aF156.649
aF243.865
aF233.064
aF242.31
aF241.513
aF249.476
aF190.271
aF186.356
aF207.898
aF205.376
aF211.46499999999997
aa(lp4
F246.696
aF238.76
aF246.578
aF240.873
aF242.186
aF123.238
aF119.122
aF120.05499999999999
aF122.069
aF126.93099999999998
aF141.92499999999998
aF135.59099999999998
aF135.696
aF138.10500000000002
aF135.597
aF137.176
aF136.05900000000003
aF138.613
aF135.015
aF141.94899999999998
aF187.029
aF179.681
aF181.385
aF180.814
aF182.93599999999998
aF139.048
aF142.709
aF139.273
aF137.953
aF140.813
aF140.89499999999998
aF135.75400000000002
aF141.396
aF136.101
aF138.391
aF156.803
aF153.614
aF153.76999999999998
aF149.617
aF156.87300000000002
aF238.737
aF241.737
aF233.12
aF244.817
aF238.369
aF212.691
aF209.309
aF203.631
aF209.557
aF208.99200000000002
aa(lp5
F34.533
aF36.286
aF34.655
aF34.363
aF39.596
aF68.51400000000001
aF67.30799999999999
aF67.406
aF68.24000000000001
aF66.59899999999999
aF33.14
aF33.701
aF33.628
aF33.709999999999994
aF33.903999999999996
aF34.217999999999996
aF33.988
aF34.141999999999996
aF33.037
aF33.665
aF33.811
aF34.567
aF33.941
aF34.21
aF33.863
aF32.742
aF34.019
aF32.737
aF33.874
aF33.277
aF33.620999999999995
aF31.722
aF34.179
aF32.882000000000005
aF33.931000000000004
aF32.28
aF33.444
aF33.120999999999995
aF33.586
aF33.372
aF67.10399999999998
aF65.564
aF66.807
aF66.023
aF66.11600000000001
aF34.38
aF34.181000000000004
aF34.37
aF33.827999999999996
aF34.324
aa(lp6
F34.838
aF35.276
aF36.14
aF34.762
aF34.749
aF50.19799999999999
aF49.812000000000005
aF48.974999999999994
aF49.116
aF49.977000000000004
aF33.036
aF33.385999999999996
aF34.137
aF33.406
aF33.717999999999996
aF34.141999999999996
aF34.261
aF33.762
aF33.735
aF33.729
aF34.458000000000006
aF34.048
aF34.284
aF35.251999999999995
aF33.913
aF33.313
aF32.217999999999996
aF33.44
aF32.471
aF32.596
aF33.082
aF32.986000000000004
aF32.842999999999996
aF33.132000000000005
aF32.586
aF33.013
aF33.124
aF32.83
aF32.977
aF33.095
aF49.733999999999995
aF48.92900000000001
aF49.821
aF49.81
aF50.004999999999995
aF38.455000000000005
aF34.188
aF34.181999999999995
aF34.006
aF34.037
aa(lp7
I0
aI0
aI0
aI0
aI0
aI1
aI1
aI1
aI1
aI1
aI0
aI0
aI0
aI0
aI0
aI0
aI0
aI0
aI0
aI0
aI0
aI0
aI0
aI0
aI0
aI0
aI0
aI0
aI0
aI0
aI0
aI0
aI0
aI0
aI0
aI0
aI0
aI0
aI0
aI0
aI1
aI1
aI1
aI1
aI1
aI0
aI0
aI0
aI0
aI0
aa.