(lp0
(lp1
I15
aI15
aI15
aI15
aI15
aI15
aI15
aI15
aI15
aI15
aI15
aI15
aI15
aI15
aI15
aI15
aI15
aI15
aI15
aI15
aa(lp2
F1.8666666666666667
aF1.8666666666666667
aF2.0
aF1.8
aF1.9333333333333333
aF1.9333333333333333
aF1.9333333333333333
aF2.066666666666667
aF2.0
aF1.7333333333333334
aF1.8
aF1.6
aF2.066666666666667
aF1.9333333333333333
aF1.8666666666666667
aF1.8666666666666667
aF2.0
aF1.8666666666666667
aF2.0
aF2.1333333333333333
aa(lp3
F132.561
aF258.93300000000005
aF151.941
aF127.82
aF178.362
aF180.74699999999999
aF264.686
aF165.04
aF289.89799999999997
aF172.343
aF119.443
aF65.293
aF197.48499999999999
aF125.303
aF222.95499999999998
aF112.65
aF249.43699999999998
aF222.963
aF278.28799999999995
aF344.294
aa(lp4
F76.65299999999999
aF36.732
aF39.259
aF73.99300000000001
aF38.701
aF38.576
aF38.487
aF37.841
aF39.193
aF109.29400000000001
aF74.99799999999999
aF38.606
aF37.208999999999996
aF38.235
aF77.77799999999999
aF38.961999999999996
aF38.065000000000005
aF38.004999999999995
aF39.843999999999994
aaI0
aI1
a(lp5
a.