(lp0
(lp1
I16
aI16
aI16
aI16
aI16
aI16
aI16
aI16
aI16
aI16
aI16
aI16
aI16
aI16
aI16
aI16
aI16
aI16
aI16
aI16
aI16
aI16
aI16
aI16
aI16
aI16
aI16
aI16
aI16
aI16
aI16
aI16
aI16
aI16
aI16
aI16
aI16
aI16
aI16
aI16
aa(lp2
F2.75
aF2.75
aF2.75
aF2.75
aF2.75
aF2.75
aF2.75
aF2.75
aF2.75
aF2.75
aF2.75
aF2.75
aF2.75
aF2.75
aF2.75
aF2.75
aF2.75
aF2.75
aF2.75
aF2.75
aF2.75
aF2.75
aF2.75
aF2.75
aF2.75
aF2.75
aF2.75
aF2.75
aF2.75
aF2.75
aF2.75
aF2.75
aF2.75
aF2.75
aF2.75
aF2.75
aF2.75
aF2.75
aF2.75
aF2.75
aa(lp3
F120.372
aF125.09700000000001
aF121.519
aF122.72800000000001
aF121.99300000000001
aF124.624
aF124.71000000000001
aF124.486
aF123.169
aF123.686
aF121.617
aF124.06200000000001
aF122.55499999999999
aF122.22
aF128.372
aF123.083
aF125.476
aF127.934
aF123.306
aF122.825
aF128.948
aF122.321
aF122.863
aF125.464
aF122.96600000000001
aF122.033
aF124.337
aF121.517
aF121.31599999999999
aF121.985
aF123.556
aF123.424
aF122.646
aF122.42599999999999
aF123.22
aF120.80000000000001
aF124.936
aF123.849
aF124.825
aF122.6
aa(lp4
F42.683
aF42.26
aF42.808
aF42.771
aF42.989
aF43.005
aF43.207
aF42.676
aF42.632000000000005
aF43.015
aF42.894
aF43.211
aF42.626
aF42.982
aF45.176
aF42.791999999999994
aF43.8
aF41.861000000000004
aF43.212
aF43.01
aF42.613
aF41.925999999999995
aF42.401
aF42.545
aF42.757999999999996
aF43.028
aF42.668
aF42.984
aF42.609
aF42.369
aF42.683
aF42.516999999999996
aF42.333999999999996
aF42.976
aF42.338
aF42.33
aF42.251999999999995
aF42.141
aF42.315
aF42.351
aaI0
aI0
a(lp5
a.