(lp0
(lp1
I12
aI12
aI12
aI12
aI12
aI12
aI12
aI12
aI12
aI12
aI12
aI12
aI12
aI12
aI12
aI12
aI12
aI12
aI12
aI12
aa(lp2
F3.25
aF3.25
aF3.25
aF3.25
aF3.25
aF3.25
aF3.25
aF3.25
aF3.25
aF3.25
aF3.25
aF3.25
aF3.25
aF3.25
aF3.25
aF3.25
aF3.25
aF3.25
aF3.25
aF3.25
aa(lp3
F242.874
aF177.29500000000002
aF177.27100000000002
aF243.949
aF224.594
aF236.55599999999998
aF235.98
aF177.804
aF183.60899999999998
aF236.32
aF254.652
aF192.76
aF223.55700000000002
aF191.98000000000002
aF244.44299999999998
aF456.12
aF240.69299999999998
aF234.601
aF245.625
aF230.186
aa(lp4
F67.369
aF109.92600000000002
aF63.205
aF63.32
aF109.826
aF64.988
aF63.4
aF64.52699999999999
aF63.995000000000005
aF87.072
aF64.055
aF64.753
aF63.815999999999995
aF86.943
aF64.25699999999999
aF64.372
aF86.088
aF85.06400000000001
aF110.03099999999999
aF62.47800000000001
aaI0
aI0
a(lp5
a.