(lp0
(lp1
F0.5798484859909441
aF0.8381310782375968
aF0.5431853201042196
aF1.3456505000603152
aF0.5417458720710954
aF0.5636998558371089
aF0.5896974657059593
aF0.6721086851700404
aF0.5648202069939361
aF0.6463124016257571
aF0.6052373584621732
aF0.6195792992155267
aF0.705361682157349
aF1.3304934404738973
aF0.9225821436963284
aF0.5416609324349273
aF0.5933025551730631
aF0.5065620012871874
aF1.0244325900932645
aF1.133500636625005
aF1.044933437837026
aF1.3501326438047443
aF1.0313822223362967
aF1.2528096359803154
aF0.913449872996017
aF1.24348477676266
aF1.0822630926831853
aF1.1034511557599136
aF0.9356048625694722
aF0.9409343519302578
aF0.6145607639118726
aF1.4135385333352546
aF1.1400180486114486
aa(lp2
F0.5798484859909441
aF0.8381310782375968
aF0.5431853201042196
aF0.5417458720710954
aF0.5636998558371089
aF0.5896974657059593
aF0.6721086851700404
aF0.5648202069939361
aF0.6463124016257571
aF0.6052373584621732
aF0.6195792992155267
aF0.705361682157349
aF0.9225821436963284
aF0.5416609324349273
aF0.5933025551730631
aF0.5065620012871874
aF1.0244325900932645
aF1.044933437837026
aF1.0313822223362967
aF0.913449872996017
aF0.9356048625694722
aF0.9409343519302578
aF0.6145607639118726
aa(lp3
F1.5547087928535606
aF1.9792577213268798
aF1.531433775934183
aF1.9777488981432374
aF1.5288233682317207
aF1.7217019134927258
aF1.8129557007059507
aF1.496777247357294
aF1.5955016404569975
aF1.565315306190202
aF1.9509051534397974
aF1.7194891919929747
aF1.946292731613548
aF1.6057036568956153
aF1.8746230382574711
aF1.9464554792813633
aF1.9225237248556644
aa(lp4
F1.5547087928535606
aF1.3456505000603152
aF1.9792577213268798
aF1.531433775934183
aF1.9777488981432374
aF1.5288233682317207
aF1.3304934404738973
aF1.7217019134927258
aF1.8129557007059507
aF1.133500636625005
aF1.3501326438047443
aF1.496777247357294
aF1.5955016404569975
aF1.565315306190202
aF1.9509051534397974
aF1.2528096359803154
aF1.7194891919929747
aF1.24348477676266
aF1.0822630926831853
aF1.1034511557599136
aF1.946292731613548
aF1.6057036568956153
aF1.8746230382574711
aF1.9464554792813633
aF1.4135385333352546
aF1.1400180486114486
aF1.9225237248556644
aa(lp5
I35
aI24
aI37
aI15
aI37
aI36
aI34
aI30
aI36
aI31
aI33
aI33
aI29
aI15
aI22
aI37
aI34
aI40
aI20
aI18
aI19
aI15
aI20
aI16
aI22
aI16
aI19
aI18
aI22
aI22
aI33
aI15
aI18
aa(lp6
I35
aI24
aI37
aI37
aI36
aI34
aI30
aI36
aI31
aI33
aI33
aI29
aI22
aI37
aI34
aI40
aI20
aI19
aI20
aI22
aI22
aI22
aI33
aa(lp7
(lp8
I13
aI11
aI13
aI11
aI13
aI12
aI11
aI14
aI13
aI13
aI11
aI12
aI11
aI13
aI11
aI11
aI11
aa(lp9
I4
aI4
aI4
aI4
aI4
aI4
aI4
aI4
aI4
aI4
aI4
aI4
aI4
aI4
aI4
aI4
aI4
aaa(lp10
(lp11
I13
aI15
aI11
aI13
aI11
aI13
aI15
aI12
aI11
aI18
aI15
aI14
aI13
aI13
aI11
aI16
aI12
aI16
aI19
aI18
aI11
aI13
aI11
aI11
aI15
aI18
aI11
aa(lp12
I4
aI4
aI4
aI4
aI4
aI4
aI4
aI4
aI4
aI4
aI4
aI4
aI4
aI4
aI4
aI4
aI4
aI4
aI4
aI4
aI4
aI4
aI4
aI4
aI4
aI4
aI4
aaa.