(lp0
(lp1
F1.2999006027002573
aF1.376514834186581
aF1.6640982954244388
aF1.5642334862449212
aF0.7350407124723731
aF1.5659976427658469
aF0.8092494003611519
aF1.219874378916892
aF1.5914094398213399
aF0.9621673473798613
aF0.9952333760625551
aF0.9040536179264551
aF0.7825509719912823
aF0.6626766266538293
aF1.2912696955671643
aF1.0154697390386365
aF0.830128971795415
aF1.3032492526061943
aF0.7745760489457332
aF1.1168847828746193
aF0.6717669279132665
aa(lp2
F1.2999006027002573
aF0.8092494003611519
aF1.219874378916892
aF0.9621673473798613
aF0.9952333760625551
aF0.7825509719912823
aF0.6626766266538293
aF1.2912696955671643
aF0.830128971795415
aF1.3032492526061943
aF1.2694673363193039
aa(lp3
F1.7127562740658229
aF1.3939262535738013
aF1.488591328544204
aF1.997939151445828
aF0.5177344502353821
aF0.5561352923284939
aF1.8298693625796765
aF1.7166232833626252
aF1.5470359160673632
aF1.770637200489554
aF1.3923444831026872
aF0.6787847476642428
aF1.8230505405025834
aF1.7634024906610262
aF1.8579494676698454
aF1.5306567200004833
aF1.8876036988445835
aF1.14736690926723
aF1.898543675308746
aF1.5492458487172556
aF1.9475729637301318
aF1.128597814786868
aF1.127442389131652
aF0.5687905772639916
aF1.555699730275677
aF1.2694673363193039
aF1.2280200261131973
aF1.5443174866381093
aF1.9553489911178827
aa(lp4
F1.7127562740658229
aF1.3939262535738013
aF1.488591328544204
aF1.997939151445828
aF1.376514834186581
aF0.5177344502353821
aF0.5561352923284939
aF1.6640982954244388
aF1.5642334862449212
aF1.8298693625796765
aF1.7166232833626252
aF1.5470359160673632
aF0.7350407124723731
aF1.770637200489554
aF1.5659976427658469
aF1.3923444831026872
aF0.6787847476642428
aF1.8230505405025834
aF1.7634024906610262
aF1.5914094398213399
aF0.9040536179264551
aF1.8579494676698454
aF1.5306567200004833
aF1.8876036988445835
aF1.14736690926723
aF1.898543675308746
aF1.5492458487172556
aF1.0154697390386365
aF1.9475729637301318
aF1.128597814786868
aF1.127442389131652
aF0.5687905772639916
aF0.7745760489457332
aF1.1168847828746193
aF1.555699730275677
aF1.2280200261131973
aF1.5443174866381093
aF0.6717669279132665
aF1.9553489911178827
aa(lp5
I13
aI12
aI10
aI11
aI22
aI11
aI20
aI13
aI10
aI17
aI16
aI18
aI21
aI24
aI13
aI16
aI19
aI13
aI21
aI15
aI24
aa(lp6
I13
aI20
aI13
aI17
aI16
aI21
aI24
aI13
aI19
aI13
aI13
aa(lp7
(lp8
I10
aI12
aI11
aI8
aI31
aI29
aI9
aI10
aI11
aI9
aI12
aI24
aI9
aI9
aI9
aI11
aI9
aI14
aI9
aI11
aI9
aI14
aI14
aI28
aI11
aI13
aI13
aI11
aI9
aa(lp9
I4
aI2
aI2
aI4
aI1
aI1
aI4
aI4
aI2
aI4
aI2
aI1
aI4
aI4
aI4
aI2
aI4
aI2
aI4
aI2
aI4
aI1
aI1
aI1
aI2
aI2
aI2
aI2
aI4
aaa(lp10
(lp11
I10
aI12
aI11
aI8
aI12
aI31
aI29
aI10
aI11
aI9
aI10
aI11
aI22
aI9
aI11
aI12
aI24
aI9
aI9
aI10
aI18
aI9
aI11
aI9
aI14
aI9
aI11
aI16
aI9
aI14
aI14
aI28
aI21
aI15
aI11
aI13
aI11
aI24
aI9
aa(lp12
I4
aI4
aI4
aI4
aI4
aI1
aI2
aI4
aI4
aI4
aI4
aI4
aI2
aI4
aI4
aI4
aI1
aI4
aI4
aI4
aI2
aI4
aI4
aI4
aI4
aI4
aI4
aI2
aI4
aI4
aI4
aI1
aI2
aI4
aI4
aI2
aI4
aI1
aI4
aaa.