(lp0
(lp1
F0.8320637628841131
aF0.6462853321702406
aF0.9307029730335732
aF1.056510231159814
aF1.25480026557431
aF0.7132227138226049
aF0.7954907373139186
aF1.2445770280684951
aF0.7414697018186199
aF0.516559587039745
aF0.5213680865858359
aF1.150788641855174
aF0.7853803481971385
aF0.6828124103691937
aF1.1230717611550614
aF1.0251347938372564
aF1.1085344320490587
aF1.077334342075169
aa(lp2
F0.9307029730335732
aF0.619103000659549
aF1.056510231159814
aF0.5169795634850176
aa(lp3
F0.5013771994715297
aF1.667326169053453
aF1.7620319458326537
aF1.8588503085096661
aF0.619103000659549
aF1.3910559694149436
aF1.9385717486580512
aF1.3753255156387942
aF1.695980698957582
aF1.331723603697039
aF1.191028500500687
aF1.9881167570894585
aF1.85092065027408
aF1.0732254130385432
aF0.955361419830032
aF1.2239527602470242
aF0.5169795634850176
aF1.4464465591419728
aF1.524104243417143
aF1.145681406897918
aF0.9363733102755258
aF1.3863406036872816
aF1.3405494402715952
aF1.2383913438245377
aF1.1713786190548534
aF1.7022741107232435
aF1.8815824090410735
aF1.4900924997626777
aF1.2256307957669281
aF1.5624221568336119
aF1.2117513490226997
aF1.436856437935139
aa(lp4
F0.5013771994715297
aF1.667326169053453
aF0.8320637628841131
aF1.7620319458326537
aF0.6462853321702406
aF1.8588503085096661
aF1.3910559694149436
aF1.9385717486580512
aF1.3753255156387942
aF1.695980698957582
aF1.331723603697039
aF1.191028500500687
aF1.25480026557431
aF1.9881167570894585
aF0.7132227138226049
aF0.7954907373139186
aF1.2445770280684951
aF0.7414697018186199
aF1.85092065027408
aF0.516559587039745
aF0.5213680865858359
aF1.150788641855174
aF0.7853803481971385
aF0.6828124103691937
aF1.0732254130385432
aF0.955361419830032
aF1.2239527602470242
aF1.1230717611550614
aF1.4464465591419728
aF1.524104243417143
aF1.145681406897918
aF1.0251347938372564
aF1.1085344320490587
aF0.9363733102755258
aF1.3863406036872816
aF1.3405494402715952
aF1.2383913438245377
aF1.1713786190548534
aF1.7022741107232435
aF1.077334342075169
aF1.8815824090410735
aF1.4900924997626777
aF1.2256307957669281
aF1.5624221568336119
aF1.2117513490226997
aF1.436856437935139
aa(lp5
I37
aI48
aI34
aI30
aI25
aI44
aI39
aI25
aI42
aI60
aI59
aI27
aI40
aI46
aI28
aI30
aI28
aI29
aa(lp6
I34
aI50
aI30
aI60
aa(lp7
(lp8
I62
aI19
aI18
aI17
aI50
aI23
aI16
aI23
aI19
aI24
aI26
aI16
aI17
aI29
aI33
aI26
aI60
aI22
aI21
aI27
aI33
aI23
aI23
aI25
aI27
aI19
aI17
aI21
aI26
aI20
aI26
aI22
aa(lp9
I1
aI4
aI4
aI4
aI1
aI4
aI4
aI4
aI4
aI1
aI1
aI4
aI4
aI2
aI2
aI1
aI1
aI4
aI4
aI2
aI2
aI2
aI1
aI2
aI1
aI4
aI4
aI4
aI1
aI4
aI1
aI4
aaa(lp10
(lp11
I62
aI19
aI37
aI18
aI48
aI17
aI23
aI16
aI23
aI19
aI24
aI26
aI25
aI16
aI44
aI39
aI25
aI42
aI17
aI60
aI59
aI27
aI40
aI46
aI29
aI33
aI26
aI28
aI22
aI21
aI27
aI30
aI28
aI33
aI23
aI23
aI25
aI27
aI19
aI29
aI17
aI21
aI26
aI20
aI26
aI22
aa(lp12
I1
aI4
aI1
aI4
aI1
aI4
aI4
aI4
aI4
aI4
aI4
aI1
aI4
aI4
aI1
aI1
aI4
aI2
aI4
aI2
aI2
aI1
aI2
aI2
aI2
aI2
aI4
aI2
aI4
aI4
aI2
aI1
aI2
aI1
aI4
aI4
aI4
aI1
aI4
aI4
aI4
aI4
aI4
aI4
aI4
aI4
aaa.