(lp0
(lp1
I36
aI36
aI36
aI36
aI36
aI36
aI36
aI36
aI36
aI36
aI36
aI36
aI36
aI36
aI36
aI36
aI36
aI36
aI36
aI36
aa(lp2
F2.4444444444444446
aF2.5555555555555554
aF2.361111111111111
aF2.361111111111111
aF2.5555555555555554
aF2.5
aF2.6666666666666665
aF2.4722222222222223
aF2.3333333333333335
aF2.3333333333333335
aF2.5555555555555554
aF2.5555555555555554
aF2.4722222222222223
aF2.6944444444444446
aF2.6666666666666665
aF2.4444444444444446
aF2.5277777777777777
aF2.5833333333333335
aF2.638888888888889
aF2.5555555555555554
aa(lp3
F451.68399999999997
aF438.784
aF1351.149
aF443.295
aF472.074
aF472.24899999999997
aF432.889
aF393.10299999999995
aF404.384
aF454.675
aF683.422
aF427.73699999999997
aF454.775
aF683.286
aF457.121
aF424.203
aF575.751
aF468.46999999999997
aF472.723
aF433.475
aa(lp4
F3744.928
aF576.3290000000001
aF211.233
aF559.485
aF216.639
aF209.81900000000002
aF505.43499999999995
aF211.847
aF215.29699999999997
aF313.142
aF316.63
aF199.88299999999998
aF213.45999999999998
aF106.946
aF312.97700000000003
aaI2
aI3
a(lp5
I3
aI3
aa.