(lp0
(lp1
F859.7709999999998
aF811.4769999999995
aF824.2000000000003
aF860.6290000000004
aF875.9510000000001
aF846.0009999999997
aF795.2549999999997
aF878.2459999999999
aF859.9239999999999
aF868.1410000000001
aa.