(lp0
(lp1
F1113.7320000000007
aF1121.7179999999998
aF1118.4790000000007
aF1182.1199999999994
aF1147.047
aF1138.3609999999996
aF1113.9859999999992
aF1138.3370000000004
aF1130.036000000001
aF1151.022999999999
aa.