(lp0
(lp1
F1188.6139999999996
aF1119.9280000000003
aF1182.0130000000004
aF1155.6089999999997
aF1192.5180000000003
aF1161.7569999999996
aF1197.2989999999993
aF1169.4859999999994
aF1199.4390000000008
aF1175.9660000000003
aF1200.599
aF1171.3609999999996
aa.