(lp0
(lp1
I15
aI15
aI15
aI15
aI15
aI15
aI15
aI15
aI15
aI15
aI15
aI15
aI15
aI15
aI15
aI15
aI15
aI15
aI15
aI15
aI15
aI15
aI15
aI15
aI15
aI15
aI15
aI15
aI15
aI15
aI15
aI15
aI15
aI15
aI15
aI15
aI15
aI15
aI15
aI15
aa(lp2
F30.0
aF26.0
aF27.0
aF26.0
aF27.0
aF23.0
aF26.0
aF26.0
aF26.0
aF28.0
aF21.0
aF26.0
aF28.0
aF25.0
aF26.0
aF26.0
aF25.0
aF27.0
aF26.0
aF25.0
aF29.0
aF26.0
aF30.0
aF26.0
aF29.0
aF28.0
aF22.0
aF27.0
aF27.0
aF23.0
aF28.0
aF25.0
aF29.0
aF27.0
aF25.0
aF27.0
aF26.0
aF27.0
aF26.0
aF26.0
aa(lp3
F288.67900000000003
aF149.842
aF187.468
aF112.152
aF167.886
aF96.209
aF123.597
aF220.282
aF152.721
aF182.721
aF75.99799999999999
aF147.957
aF252.294
aF224.464
aF151.661
aF134.316
aF84.88999999999999
aF279.644
aF176.114
aF162.95399999999998
aF388.323
aF166.367
aF285.84700000000004
aF160.945
aF163.80700000000002
aF278.011
aF80.37700000000001
aF151.13
aF286.611
aF102.133
aF350.146
aF149.35399999999998
aF144.30200000000002
aF198.147
aF145.362
aF277.27000000000004
aF140.95499999999998
aF192.911
aF139.133
aF181.88899999999998
aa(lp4
F38.248
aF78.861
aF74.725
aF39.346
aF37.284
aF112.059
aF38.212999999999994
aF75.045
aF38.853
aF37.711
aF76.988
aF38.998
aF36.704
aF39.858
aF37.611
aF37.463
aF38.317
aF38.786
aF77.409
aF37.644999999999996
aF38.402
aF39.336999999999996
aF77.487
aF39.669999999999995
aF37.534
aF74.876
aF80.781
aF37.683
aF39.04
aF39.010000000000005
aF39.646
aF73.774
aF40.252
aF37.962999999999994
aF38.562
aF75.44
aF36.857
aaI0
aI3
a(lp5
aF0.005
a.