(lp0
(lp1
I15
aI15
aI15
aI15
aI15
aI15
aI15
aI15
aI15
aI15
aI15
aI15
aI15
aI15
aI15
aI15
aI15
aI15
aI15
aI15
aI15
aI15
aI15
aI15
aI15
aI15
aI15
aI15
aI15
aI15
aI15
aI15
aI15
aI15
aI15
aI15
aI15
aI15
aI15
aI15
aI15
aI15
aI15
aI15
aI15
aI15
aI15
aI15
aI15
aI15
aI15
aI15
aI15
aI15
aI15
aI15
aI15
aI15
aI15
aI15
aI15
aI15
aI15
aI15
aI15
aI15
aI15
aI15
aI15
aI15
aI15
aI15
aI15
aI15
aI15
aI15
aI15
aI15
aI15
aI15
aI15
aI15
aI15
aI15
aI15
aI15
aI15
aI15
aI15
aI15
aI15
aI15
aI15
aI15
aI15
aI15
aI15
aI15
aI15
aI15
aa(lp2
F2.0
aF1.8666666666666667
aF2.0
aF1.8666666666666667
aF2.0
aF2.066666666666667
aF1.9333333333333333
aF2.0
aF1.8
aF2.066666666666667
aF1.9333333333333333
aF2.0
aF1.9333333333333333
aF2.0
aF1.9333333333333333
aF1.8
aF1.8666666666666667
aF2.066666666666667
aF1.8
aF1.8
aF2.0
aF1.8
aF1.8
aF2.0
aF2.0
aF1.6666666666666667
aF1.8
aF2.066666666666667
aF1.8666666666666667
aF1.8
aF1.6666666666666667
aF1.4666666666666666
aF1.8666666666666667
aF1.8666666666666667
aF1.8
aF1.8666666666666667
aF2.0
aF2.0
aF1.8666666666666667
aF1.9333333333333333
aF1.8666666666666667
aF1.8
aF1.8666666666666667
aF2.0
aF2.066666666666667
aF1.8666666666666667
aF1.8
aF1.8666666666666667
aF1.8
aF1.9333333333333333
aF1.8
aF2.1333333333333333
aF2.1333333333333333
aF1.8666666666666667
aF2.1333333333333333
aF1.8666666666666667
aF2.1333333333333333
aF1.8666666666666667
aF2.0
aF2.066666666666667
aF1.6666666666666667
aF1.5333333333333334
aF2.0
aF2.0
aF2.1333333333333333
aF1.8666666666666667
aF2.0
aF1.8
aF2.0
aF1.8
aF1.8666666666666667
aF1.8666666666666667
aF1.8
aF2.066666666666667
aF2.1333333333333333
aF1.9333333333333333
aF2.066666666666667
aF2.066666666666667
aF1.9333333333333333
aF1.9333333333333333
aF2.066666666666667
aF2.0
aF2.066666666666667
aF1.7333333333333334
aF2.2
aF1.4666666666666666
aF1.7333333333333334
aF2.0
aF1.5333333333333334
aF1.9333333333333333
aF1.5333333333333334
aF1.8666666666666667
aF2.0
aF1.5333333333333334
aF1.7333333333333334
aF2.0
aF1.8666666666666667
aF1.8666666666666667
aF2.0
aF1.8
aa(lp3
F438.492
aF196.73
aF239.684
aF218.46099999999998
aF359.12300000000005
aF339.418
aF347.95799999999997
aF224.66400000000002
aF160.359
aF349.885
aF216.129
aF199.825
aF316.50800000000004
aF379.158
aF263.772
aF199.823
aF142.506
aF381.608
aF120.76299999999999
aF139.257
aF316.66499999999996
aF136.14399999999998
aF141.975
aF314.20300000000003
aF165.604
aF98.551
aF112.123
aF361.722
aF257.484
aF131.608
aF119.70899999999999
aF66.74
aF137.982
aF96.933
aF116.226
aF134.006
aF251.763
aF264.892
aF254.245
aF275.60400000000004
aF285.823
aF123.961
aF154.968
aF259.266
aF389.26899999999995
aF122.828
aF145.778
aF199.798
aF261.029
aF216.035
aF101.806
aF412.189
aF170.053
aF191.468
aF191.02700000000002
aF121.835
aF377.191
aF190.18099999999998
aF387.33299999999997
aF334.989
aF106.18900000000001
aF67.253
aF367.911
aF406.921
aF294.819
aF187.904
aF192.02
aF131.546
aF286.412
aF158.334
aF168.239
aF223.744
aF112.35499999999999
aF308.467
aF215.251
aF303.219
aF306.537
aF369.888
aF247.068
aF167.294
aF393.185
aF143.625
aF382.601
aF98.345
aF336.578
aF61.253
aF129.849
aF139.236
aF83.82000000000001
aF211.28900000000002
aF117.524
aF118.86
aF244.964
aF73.062
aF88.48
aF216.635
aF216.981
aF290.90700000000004
aF262.93699999999995
aF145.057
aa(lp4
F78.757
aF38.659
aF39.416
aF38.314
aF114.077
aF38.762
aF39.053999999999995
aF39.427
aF73.007
aF39.775999999999996
aF39.665
aF38.738
aF39.803
aF39.954
aF38.186
aF37.781
aF39.402
aF76.576
aF110.824
aF39.385999999999996
aF76.693
aF38.217
aF38.968
aF76.929
aF75.97200000000001
aF39.5
aF37.922
aF38.146
aF75.90899999999999
aF37.117
aF75.856
aF39.348
aF38.754999999999995
aF38.404
aF38.415
aF38.576
aF191.407
aF108.85000000000001
aF38.995000000000005
aF38.42
aF38.933
aF37.150000000000006
aF36.935
aF40.487
aF38.729
aF39.103
aF77.965
aF76.975
aF40.041
aF81.174
aF42.888000000000005
aF40.195
aF38.574
aF39.754999999999995
aF37.977
aF73.815
aF40.398
aF39.836000000000006
aF79.328
aF38.772
aF37.571
aF39.265
aF39.532
aF39.637
aF38.172
aF74.02199999999999
aF40.391999999999996
aF40.309999999999995
aF39.702
aF80.8
aF39.47
aF39.796
aF37.821
aF39.083
aF40.792
aF40.332
aF74.921
aF75.661
aF37.013
aF38.728
aF73.761
aF105.622
aF37.288000000000004
aF71.04400000000001
aF37.54
aF39.760999999999996
aF38.214
aF39.364999999999995
aF39.348
aF77.685
aaI9
aI1
a(lp5
I3
aI3
aI3
aI3
aI3
aI3
aI3
aI3
aI3
aa.