(lp0
(lp1
I15
aI15
aI15
aI15
aI15
aI15
aI15
aI15
aI15
aI15
aI15
aI15
aI15
aI15
aI15
aI15
aI15
aI15
aI15
aI15
aI15
aI15
aI15
aI15
aI15
aI15
aI15
aI15
aI15
aI15
aI15
aI15
aI15
aI15
aI15
aI15
aI15
aI15
aI15
aI15
aI15
aI15
aI15
aI15
aI15
aI15
aI15
aI15
aI15
aI15
aI15
aI15
aI15
aI15
aI15
aI15
aI15
aI15
aI15
aI15
aI15
aI15
aI15
aI15
aI15
aI15
aI15
aI15
aI15
aI15
aI15
aI15
aI15
aI15
aI15
aI15
aI15
aI15
aI15
aI15
aI15
aI15
aI15
aI15
aI15
aI15
aI15
aI15
aI15
aI15
aI15
aI15
aI15
aI15
aI15
aI15
aI15
aI15
aI15
aI15
aa(lp2
F2.2
aF2.2
aF2.1333333333333333
aF2.0
aF2.4
aF2.2
aF2.066666666666667
aF2.1333333333333333
aF2.0
aF2.066666666666667
aF2.066666666666667
aF1.9333333333333333
aF2.066666666666667
aF2.4
aF2.2666666666666666
aF1.9333333333333333
aF2.6
aF2.3333333333333335
aF2.0
aF2.4
aF1.9333333333333333
aF2.066666666666667
aF1.6666666666666667
aF2.1333333333333333
aF2.2
aF1.6666666666666667
aF2.2
aF1.8666666666666667
aF2.1333333333333333
aF2.2
aF1.8
aF1.6666666666666667
aF2.3333333333333335
aF1.9333333333333333
aF2.1333333333333333
aF2.2
aF2.066666666666667
aF2.3333333333333335
aF2.2
aF2.3333333333333335
aF2.3333333333333335
aF1.8666666666666667
aF1.9333333333333333
aF2.2666666666666666
aF2.0
aF1.7333333333333334
aF2.4
aF2.2666666666666666
aF2.1333333333333333
aF2.2666666666666666
aF2.3333333333333335
aF2.066666666666667
aF2.3333333333333335
aF2.1333333333333333
aF2.066666666666667
aF1.9333333333333333
aF2.1333333333333333
aF1.6666666666666667
aF1.9333333333333333
aF2.066666666666667
aF1.9333333333333333
aF2.066666666666667
aF1.9333333333333333
aF1.9333333333333333
aF1.9333333333333333
aF2.066666666666667
aF2.466666666666667
aF2.3333333333333335
aF2.2666666666666666
aF2.2666666666666666
aF2.0
aF2.066666666666667
aF1.8666666666666667
aF1.6666666666666667
aF2.0
aF2.466666666666667
aF2.1333333333333333
aF2.0
aF1.6666666666666667
aF1.9333333333333333
aF2.066666666666667
aF2.2666666666666666
aF1.9333333333333333
aF2.1333333333333333
aF2.2666666666666666
aF2.2
aF2.3333333333333335
aF1.9333333333333333
aF2.2666666666666666
aF2.3333333333333335
aF1.9333333333333333
aF2.1333333333333333
aF2.2666666666666666
aF2.2666666666666666
aF1.8
aF2.0
aF1.9333333333333333
aF2.4
aF2.066666666666667
aF2.2
aa(lp3
F297.35200000000003
aF381.729
aF242.29600000000002
aF239.57899999999998
aF374.806
aF326.72200000000004
aF256.118
aF220.96099999999998
aF131.303
aF281.8
aF321.934
aF224.06400000000002
aF255.263
aF357.323
aF306.599
aF184.395
aF350.43800000000005
aF245.251
aF229.519
aF370.46000000000004
aF115.54599999999999
aF262.175
aF96.43
aF233.46800000000002
aF360.074
aF97.532
aF248.62300000000002
aF117.09
aF206.733
aF249.714
aF130.501
aF92.054
aF188.471
aF146.03
aF328.472
aF331.953
aF298.81600000000003
aF200.927
aF360.224
aF322.72299999999996
aF349.169
aF140.476
aF247.54999999999998
aF332.664
aF295.659
aF124.571
aF361.35499999999996
aF381.591
aF275.334
aF380.21500000000003
aF379.183
aF326.141
aF384.356
aF169.971
aF252.008
aF113.282
aF331.8
aF105.339
aF231.92399999999998
aF167.826
aF140.049
aF258.971
aF238.034
aF138.641
aF191.149
aF265.233
aF373.442
aF382.492
aF337.59
aF356.697
aF233.243
aF235.259
aF153.578
aF85.036
aF207.969
aF355.26099999999997
aF335.032
aF233.638
aF86.142
aF230.389
aF278.357
aF310.59
aF176.43800000000002
aF244.564
aF250.68200000000002
aF237.38600000000002
aF422.531
aF164.909
aF349.045
aF353.144
aF201.971
aF266.289
aF384.385
aF349.469
aF100.72
aF221.01100000000002
aF144.611
aF312.71900000000005
aF204.952
aF141.66
aa(lp4
F36.183
aF69.888
aF181.61399999999998
aF67.705
aF36.311
aF67.696
aF72.214
aF103.762
aF34.663
aF70.84199999999998
aF69.819
aF74.072
aF36.945
aF36.602000000000004
aF72.633
aF35.219
aF36.407000000000004
aF172.293
aF106.835
aF102.346
aF71.561
aF69.848
aF66.239
aF70.07399999999998
aF102.78099999999999
aF35.539
aF70.87700000000001
aF35.266
aF33.474
aF148.043
aF71.169
aF70.84700000000001
aF34.96
aF35.948
aF35.87
aF70.769
aF71.735
aF69.52799999999999
aF69.381
aF71.31200000000001
aF34.857
aF34.931999999999995
aF108.162
aF36.003
aF35.954
aF175.339
aF35.994
aF36.894999999999996
aF71.78999999999999
aF72.30599999999998
aF70.058
aF101.947
aF36.299
aF35.176
aF34.486000000000004
aF35.236000000000004
aF35.866
aF103.137
aF36.644000000000005
aF36.175
aF36.329
aF35.541999999999994
aF36.007999999999996
aF34.775
aF35.808
aF35.119
aF34.441
aF36.079
aF35.293
aF34.558
aF69.17699999999999
aF433.61999999999995
aF34.352000000000004
aF108.404
aF36.263
aF106.85900000000001
aF74.318
aF35.227000000000004
aF137.06
aF35.31
aF35.229000000000006
aF36.538000000000004
aF36.285
aF1414.0129999999995
aaI16
aI0
a(lp5
I3
aI3
aI3
aI3
aI3
aI3
aI3
aI3
aI3
aI3
aI3
aI3
aI3
aI3
aI3
aI3
aa.