(lp0
(lp1
I15
aI15
aI15
aI15
aI15
aI15
aI15
aI15
aI15
aI15
aI15
aI15
aI15
aI15
aI15
aI15
aI15
aI15
aI15
aI15
aI15
aI15
aI15
aI15
aI15
aI15
aI15
aI15
aI15
aI15
aI15
aI15
aI15
aI15
aI15
aI15
aI15
aI15
aI15
aI15
aI15
aI15
aI15
aI15
aI15
aI15
aI15
aI15
aI15
aI15
aI15
aI15
aI15
aI15
aI15
aI15
aI15
aI15
aI15
aI15
aI15
aI15
aI15
aI15
aI15
aI15
aI15
aI15
aI15
aI15
aI15
aI15
aI15
aI15
aI15
aI15
aI15
aI15
aI15
aI15
aI15
aI15
aI15
aI15
aI15
aI15
aI15
aI15
aI15
aI15
aI15
aI15
aI15
aI15
aI15
aI15
aI15
aI15
aI15
aI15
aa(lp2
F2.066666666666667
aF1.8666666666666667
aF2.0
aF1.8666666666666667
aF2.066666666666667
aF1.8666666666666667
aF1.8666666666666667
aF1.8
aF2.066666666666667
aF2.066666666666667
aF1.9333333333333333
aF2.066666666666667
aF1.8
aF2.066666666666667
aF1.8666666666666667
aF2.066666666666667
aF2.066666666666667
aF2.0
aF1.9333333333333333
aF1.8666666666666667
aF1.8
aF2.0
aF1.2
aF1.6666666666666667
aF1.8
aF2.1333333333333333
aF2.0
aF2.0
aF2.1333333333333333
aF2.0
aF2.066666666666667
aF2.0
aF1.8666666666666667
aF1.8666666666666667
aF2.0
aF1.9333333333333333
aF2.066666666666667
aF1.7333333333333334
aF1.6666666666666667
aF2.1333333333333333
aF1.7333333333333334
aF1.8
aF1.7333333333333334
aF1.9333333333333333
aF1.9333333333333333
aF1.4
aF1.8666666666666667
aF1.8
aF2.0
aF2.0
aF2.0
aF2.1333333333333333
aF1.8
aF1.8666666666666667
aF2.0
aF2.0
aF1.6666666666666667
aF1.5333333333333334
aF1.8666666666666667
aF2.0
aF2.0
aF2.066666666666667
aF1.8666666666666667
aF2.0
aF2.0
aF1.8666666666666667
aF2.0
aF2.066666666666667
aF1.8
aF2.066666666666667
aF2.0
aF1.9333333333333333
aF1.7333333333333334
aF1.8
aF1.9333333333333333
aF1.8666666666666667
aF2.0
aF1.9333333333333333
aF2.066666666666667
aF1.8
aF2.0
aF2.066666666666667
aF1.5333333333333334
aF1.8
aF2.066666666666667
aF2.066666666666667
aF1.7333333333333334
aF2.0
aF1.8666666666666667
aF2.1333333333333333
aF1.9333333333333333
aF1.8666666666666667
aF2.0
aF1.7333333333333334
aF1.9333333333333333
aF1.8
aF1.8666666666666667
aF1.9333333333333333
aF1.7333333333333334
aF2.0
aa(lp3
F296.476
aF144.185
aF298.203
aF249.13
aF331.604
aF261.432
aF154.554
aF101.331
aF319.022
aF302.046
aF232.676
aF322.86199999999997
aF140.495
aF361.83799999999997
aF243.522
aF306.919
aF307.223
aF290.63899999999995
aF150.29799999999997
aF226.802
aF162.6
aF178.05499999999998
aF51.497
aF69.99900000000001
aF162.132
aF337.91900000000004
aF158.618
aF321.009
aF367.399
aF189.49699999999999
aF326.275
aF334.743
aF223.583
aF144.267
aF298.845
aF303.543
aF383.971
aF79.03
aF93.164
aF340.31
aF150.01500000000001
aF186.13
aF108.913
aF241.591
aF349.599
aF59.359
aF146.25199999999998
aF117.725
aF460.48299999999995
aF310.604
aF363.498
aF297.416
aF124.742
aF181.098
aF326.93100000000004
aF336.001
aF91.933
aF73.04299999999999
aF193.18099999999998
aF169.356
aF339.52700000000004
aF187.821
aF193.155
aF163.579
aF285.62399999999997
aF178.347
aF190.552
aF346.62399999999997
aF119.542
aF319.14
aF319.793
aF151.15200000000002
aF144.607
aF137.32
aF177.154
aF186.191
aF236.985
aF191.161
aF307.90000000000003
aF139.99200000000002
aF221.956
aF332.438
aF83.887
aF104.25
aF268.8
aF257.632
aF99.481
aF185.332
aF271.011
aF286.363
aF225.629
aF181.612
aF284.221
aF142.96800000000002
aF184.974
aF165.115
aF208.104
aF254.99300000000002
aF155.614
aF338.518
aa(lp4
F35.789
aF68.98500000000001
aF35.055
aF34.614
aF37.025000000000006
aF35.236999999999995
aF227.71900000000002
aF67.52000000000001
aF36.009
aF68.268
aF35.043
aF35.028
aF35.941
aF34.296
aF34.395
aF35.294
aF69.72200000000001
aF35.001999999999995
aF70.043
aF34.872
aF34.756
aF67.401
aF33.687000000000005
aF34.472
aF34.824
aF35.68000000000001
aF34.948
aF34.228
aF36.077999999999996
aF34.696
aF34.29900000000001
aF35.342999999999996
aF35.721999999999994
aF34.85
aF103.85
aF69.93900000000001
aF69.41
aF35.532000000000004
aF68.931
aF35.123000000000005
aF34.312000000000005
aF35.457
aF34.873000000000005
aF33.187000000000005
aF34.91
aF66.911
aF34.942
aF35.727000000000004
aF35.705
aF34.844
aF68.49199999999999
aF35.467999999999996
aF34.777
aF35.504
aF34.050999999999995
aF68.589
aF35.245
aF35.211
aF34.367000000000004
aF70.03300000000002
aF68.513
aF34.795
aF68.33099999999999
aF69.765
aF35.201
aF35.412
aF34.989
aF35.87
aF34.907000000000004
aF69.82
aF35.961
aF35.62
aF35.25
aF168.154
aF35.614
aF35.699
aF34.976
aF35.333999999999996
aF35.671
aF101.067
aF35.115
aF68.733
aF35.621
aF34.264
aF34.696
aF35.647
aF35.181
aF34.869
aF34.988
aF34.574
aF34.066
aF68.07
aF34.886
aF34.677
aF34.971000000000004
aF69.28399999999999
aF34.175
aaI2
aI1
a(lp5
I3
aI3
aa.