(lp0
(lp1
I12
aI12
aI12
aI12
aI12
aI12
aI12
aI12
aI12
aI12
aI12
aI12
aI12
aI12
aI12
aI12
aI12
aI12
aI12
aI12
aI12
aI12
aI12
aI12
aI12
aI12
aI12
aI12
aI12
aI12
aI12
aI12
aI12
aI12
aI12
aI12
aI12
aI12
aI12
aI12
aI12
aI12
aI12
aI12
aI12
aI12
aI12
aI12
aI12
aI12
aI12
aI12
aI12
aI12
aI12
aI12
aI12
aI12
aI12
aI12
aI12
aI12
aI12
aI12
aI12
aI12
aI12
aI12
aI12
aI12
aI12
aI12
aI12
aI12
aI12
aI12
aI12
aI12
aI12
aI12
aI12
aI12
aI12
aI12
aI12
aI12
aI12
aI12
aI12
aI12
aI12
aI12
aI12
aI12
aI12
aI12
aI12
aI12
aI12
aI12
aa(lp2
F2.0
aF1.9166666666666667
aF2.1666666666666665
aF2.3333333333333335
aF1.6666666666666667
aF1.9166666666666667
aF1.75
aF2.0
aF1.9166666666666667
aF1.6666666666666667
aF2.0
aF1.8333333333333333
aF2.0833333333333335
aF1.75
aF1.9166666666666667
aF1.8333333333333333
aF2.3333333333333335
aF2.0833333333333335
aF1.8333333333333333
aF2.0
aF2.0
aF1.75
aF1.8333333333333333
aF2.0833333333333335
aF2.0
aF2.0
aF1.75
aF2.0
aF1.8333333333333333
aF2.0
aF1.8333333333333333
aF2.1666666666666665
aF1.9166666666666667
aF1.75
aF1.8333333333333333
aF1.5
aF2.0
aF1.8333333333333333
aF1.9166666666666667
aF1.75
aF2.0
aF2.0833333333333335
aF1.9166666666666667
aF1.75
aF2.0833333333333335
aF1.8333333333333333
aF1.6666666666666667
aF1.8333333333333333
aF1.8333333333333333
aF1.8333333333333333
aF1.75
aF1.75
aF1.75
aF2.25
aF1.8333333333333333
aF1.75
aF1.9166666666666667
aF1.5833333333333333
aF2.4166666666666665
aF2.1666666666666665
aF2.0
aF1.6666666666666667
aF1.75
aF2.1666666666666665
aF2.0
aF2.1666666666666665
aF1.5
aF2.1666666666666665
aF1.8333333333333333
aF2.1666666666666665
aF2.25
aF1.6666666666666667
aF2.3333333333333335
aF1.6666666666666667
aF1.8333333333333333
aF2.0833333333333335
aF2.0833333333333335
aF1.75
aF1.8333333333333333
aF2.0833333333333335
aF1.6666666666666667
aF2.3333333333333335
aF2.3333333333333335
aF1.9166666666666667
aF1.75
aF2.0
aF1.8333333333333333
aF2.3333333333333335
aF1.8333333333333333
aF1.8333333333333333
aF1.8333333333333333
aF1.75
aF1.9166666666666667
aF2.1666666666666665
aF2.25
aF1.9166666666666667
aF2.25
aF2.1666666666666665
aF1.75
aF1.8333333333333333
aa(lp3
F92.684
aF49.511
aF175.53199999999998
aF290.916
aF124.07600000000001
aF203.533
aF72.932
aF147.455
aF65.96499999999999
aF62.889
aF112.039
aF113.868
aF67.307
aF65.192
aF139.24
aF77.083
aF300.904
aF140.726
aF84.093
aF97.158
aF108.121
aF71.815
aF76.81
aF266.93699999999995
aF200.838
aF100.752
aF73.682
aF160.947
aF99.21000000000001
aF127.253
aF85.97
aF170.889
aF91.973
aF56.781
aF126.73499999999999
aF57.669
aF91.977
aF116.743
aF108.156
aF66.38199999999999
aF150.968
aF258.496
aF116.737
aF67.92099999999999
aF258.206
aF77.276
aF45.291
aF75.332
aF72.92800000000001
aF73.601
aF54.796
aF73.11099999999999
aF78.526
aF169.58599999999998
aF68.896
aF98.48899999999999
aF77.17599999999999
aF67.51899999999999
aF314.796
aF131.645
aF140.25
aF90.615
aF93.379
aF101.91699999999999
aF133.042
aF151.23
aF41.808
aF173.72299999999998
aF73.692
aF206.089
aF94.57000000000001
aF94.916
aF385.17699999999996
aF61.817
aF110.33999999999999
aF158.81
aF142.036
aF120.678
aF72.166
aF132.61800000000002
aF70.698
aF271.03
aF282.789
aF80.29400000000001
aF75.003
aF126.864
aF80.906
aF307.965
aF74.601
aF105.66300000000001
aF75.84200000000001
aF48.779
aF65.687
aF277.216
aF128.195
aF55.759
aF303.428
aF80.18400000000001
aF63.92100000000001
aF55.669000000000004
aa(lp4
F157.21999999999997
aF26.576
aF54.269
aF28.753
aF53.173
aF52.352000000000004
aF56.651
aF83.074
aF27.621
aF26.506999999999998
aF106.61800000000001
aF53.915
aF55.908
aF107.62100000000001
aF55.401
aF28.633
aF80.045
aF345.766
aF54.156
aF53.094
aF249.531
aF55.158
aF26.65
aF130.352
aF122.929
aF60.081
aF78.8
aF55.158
aF27.542
aF51.98
aF53.351
aF98.926
aF52.294
aF79.999
aF160.791
aF217.36399999999998
aF53.459
aF53.711
aF52.853
aF27.237000000000002
aF54.827
aF26.238
aF52.06
aF52.295
aF26.846999999999998
aF52.123999999999995
aF28.785999999999998
aF54.739000000000004
aF101.92299999999999
aF215.38199999999998
aF431.34700000000004
aF57.28999999999999
aF54.114000000000004
aF54.027
aF25.658
aF842.3370000000001
aF53.562
aF333.05
aF55.041
aF50.246
aF253.71899999999997
aF54.025000000000006
aF129.295
aF83.059
aF28.233
aF54.957
aF53.379
aF54.194
aF28.355999999999998
aF146.768
aF27.358
aF29.362
aF27.335
aF27.683
aF55.257000000000005
aF125.399
aF26.361
aF109.545
aF53.496
aF27.331
aaI20
aI0
a(lp5
I3
aI3
aI3
aI3
aI3
aI3
aI3
aI3
aI3
aI3
aI3
aI3
aI3
aI3
aI3
aI3
aI3
aI3
aI3
aI3
aa.