(lp0
(lp1
I16
aI16
aI16
aI16
aI16
aI16
aI16
aI16
aI16
aI16
aI16
aI16
aI16
aI16
aI16
aI16
aI16
aI16
aI16
aI16
aa(lp2
F3.0
aF3.0
aF3.0
aF3.0
aF3.0
aF3.0
aF3.0
aF3.0
aF3.0
aF3.0
aF3.0
aF3.0
aF3.0
aF3.0
aF3.0
aF3.0
aF3.0
aF3.0
aF3.0
aF3.0
aa(lp3
F171.293
aF173.674
aF165.313
aF166.42000000000002
aF173.011
aF164.524
aF168.346
aF181.238
aF154.774
aF165.602
aF163.36800000000002
aF167.212
aF163.358
aF161.95100000000002
aF162.72
aF157.40599999999998
aF189.35
aF158.386
aF184.726
aF163.746
aa(lp4
F44.672999999999995
aF45.364000000000004
aF43.892
aF45.552
aF47.144999999999996
aF48.574
aF47.326
aF45.379000000000005
aF49.007000000000005
aF45.29600000000001
aF46.925000000000004
aF43.894000000000005
aF45.252
aF44.635
aF45.483999999999995
aF49.065999999999995
aF48.057
aF43.912
aF46.981
aF47.182
aaI0
aI0
a(lp5
aF0.003
a.