(lp0
F-0.9638284377027094
aF0.8839967765769322
aF-2.2351744578290504e-08
aF1.1081858887166849
aF-0.9107240155032419
aF0.7017726952126152
aF-2.2351741790771484e-08
aF1.1663999529568974
aF-0.9144816352224152
aF0.8856895846590928
aF-2.235174431768976e-08
aF0.5673412789832868
aF-0.5918012461680804
aF0.6334116901712129
aF0.045642870007094424
aF1.1536022967883306
aF0.004564289235883615
aF0.004564289235883621
aF0.010880099838327219
aF-0.002086080263996905
aF0.0
aF0.0
aF0.0121167192226598
aF-0.0024174157335173484
aF-0.4270034314212207
aF0.8173918389278989
aF0.021372769095835787
aF1.1715980935560844
aF0.021044070710569587
aF0.0021372791447579324
aF0.012126558830155195
aF-0.0045960515355055395
aF0.029279369795386666
aF-0.009192155128300343
aF0.0
aF0.0
aF0.007257847898772287
aF0.0019209950529412143
aF0.012126562804518933
aF-0.004596065946328634
aF-0.22131566099600292
aF0.6343212377553321
aF0.019901113204261363
aF1.1651006238254222
aF0.04161284775309136
aF0.0019901135556003153
aF0.022846391119045004
aF8.146415885338378e-05
aF0.029618415718027584
aF-0.005708508468938431
aF0.011634195024775326
aF-0.00459608170584865
aF0.012695235445359098
aF-0.0048803725439586654
aF0.010762182674031182
aF-0.0010003055996370457
aF0.0
aF0.0
aF0.02984791194899647
aF-0.009476441574469958
aF0.1050138257818375
aF0.9337931340266046
aF0.01908644835726657
aF1.0414609695413253
aF0.023429236965868825
aF-0.007829572009324682
aF0.01319087125528568
aF-0.00613047746134542
aF0.04238175533714923
aF0.0027917877806087174
aF0.02002859315782341
aF0.0097322210867581
aF0.022017763099429506
aF-0.00849566023488293
aF0.02021344520145486
aF0.002791873201289671
aF0.0
aF0.0
aF0.011075164876489256
aF-0.0018042147510627321
aF0.04343071188457465
aF-0.014233273844121208
aF0.42438309743665636
aF0.7401722688966286
aF0.02146478152907288
aF0.5111788822133181
aF0.011723485132413572
aF0.00023783181342572509
aF0.019583017275072157
aF-0.002588578307007911
aF0.021347273652743783
aF-0.008102752797025933
aF0.019583010532507817
aF-0.006585769458570204
aF0.019033312675832095
aF0.0016960454725299396
aF0.043978010885584354
aF-0.014166655071080591
aF0.0024302473117359855
aF-0.001989690934311846
aF0.0
aF0.0
aF0.019481210520011078
aF0.009798785350728964
aF0.02181814716536906
aF-0.007184673519096789
aF0.5650372052782313
aF0.9641763450587035
aF-0.017957838371214528
aF0.5888060828641015
aF0.8892675753764194
aF0.768433679193283
aF0.04458602852305942
aF1.1484421369374274
aF0.004458605087480134
aF0.004458605087480121
aF0.006796755347878677
aF-0.0010866939823826443
aF0.01625476311358247
aF-0.0036209730973777356
aF0.0
aF0.0
aF1.1228368117029652
aF1.0935948495073673
aF-2.235174019975562e-08
aF0.6119273298580881
aF1.3379458449861126
aF0.9104635423209816
aF-2.2351741790771484e-08
aF1.14335438582008
aF1.6643398541853591
aF1.201947959220135
aF-2.2351739664076316e-08
aF1.0333469791912364
aF1.6381148578200608
aF1.019207951747395
aF-2.2351741790771484e-08
aF0.4920924115043118
a.