(lp0
(lp1
I36
aI36
aI36
aI36
aI36
aI36
aI36
aI36
aI36
aI36
aI36
aI36
aI36
aI36
aI36
aI36
aI36
aI36
aI36
aI36
aI36
aI36
aI36
aI36
aI36
aI36
aI36
aI36
aI36
aI36
aI36
aI36
aI36
aI37
aI36
aI36
aI36
aI36
aI36
aI36
aI36
aI36
aI36
aI36
aI36
aI36
aI36
aI36
aI36
aI36
aI36
aI36
aI36
aI36
aI36
aI36
aI36
aI36
aI36
aI36
aI36
aI36
aI36
aI36
aI36
aI36
aI36
aI36
aI36
aI36
aI36
aI36
aI36
aI36
aI36
aI36
aI36
aI36
aI36
aI36
aI36
aI36
aI36
aI36
aI36
aI36
aI36
aI36
aI36
aI36
aI36
aI36
aI36
aI36
aI36
aI36
aI36
aI36
aI36
aI36
aa(lp2
F2.6470588235294117
aF2.5294117647058822
aF2.5
aF2.3823529411764706
aF2.5294117647058822
aF2.5294117647058822
aF2.7058823529411766
aF2.7058823529411766
aF2.411764705882353
aF2.8529411764705883
aF2.5588235294117645
aF2.7058823529411766
aF2.3823529411764706
aF2.3529411764705883
aF2.7058823529411766
aF2.7058823529411766
aF2.6176470588235294
aF2.6176470588235294
aF2.411764705882353
aF2.823529411764706
aF2.823529411764706
aF2.764705882352941
aF2.4705882352941178
aF2.5
aF2.7058823529411766
aF2.5
aF2.764705882352941
aF2.5
aF2.676470588235294
aF2.3529411764705883
aF2.4411764705882355
aF2.6176470588235294
aF2.3823529411764706
aF2.342857142857143
aF2.4411764705882355
aF2.4705882352941178
aF2.4705882352941178
aF2.735294117647059
aF2.5588235294117645
aF2.764705882352941
aF2.6470588235294117
aF2.8529411764705883
aF2.411764705882353
aF2.764705882352941
aF2.6176470588235294
aF2.5
aF2.823529411764706
aF2.764705882352941
aF2.6176470588235294
aF2.5294117647058822
aF2.5
aF2.588235294117647
aF2.4705882352941178
aF2.176470588235294
aF2.5588235294117645
aF2.411764705882353
aF2.7058823529411766
aF2.676470588235294
aF2.4411764705882355
aF2.6470588235294117
aF2.7941176470588234
aF2.6470588235294117
aF2.6176470588235294
aF2.588235294117647
aF2.5
aF2.235294117647059
aF2.4705882352941178
aF2.5588235294117645
aF2.6470588235294117
aF2.764705882352941
aF2.588235294117647
aF2.6176470588235294
aF2.6176470588235294
aF2.6470588235294117
aF2.735294117647059
aF2.7058823529411766
aF2.7058823529411766
aF2.7058823529411766
aF2.4705882352941178
aF2.7058823529411766
aF2.7941176470588234
aF2.323529411764706
aF2.2941176470588234
aF2.8529411764705883
aF2.7941176470588234
aF2.588235294117647
aF2.5
aF2.5
aF2.4705882352941178
aF2.6470588235294117
aF2.5
aF2.411764705882353
aF2.676470588235294
aF2.235294117647059
aF2.764705882352941
aF2.411764705882353
aF2.764705882352941
aF2.676470588235294
aF2.764705882352941
aF2.6470588235294117
aa(lp3
F458.746
aF488.022
aF485.98
aF638.837
aF463.746
aF527.446
aF454.231
aF518.784
aF600.4580000000001
aF504.564
aF753.327
aF911.2719999999999
aF396.391
aF383.193
aF462.431
aF468.491
aF408.56399999999996
aF450.67
aF464.13599999999997
aF436.81399999999996
aF450.755
aF484.106
aF466.148
aF416.038
aF453.122
aF466.156
aF1275.615
aF463.971
aF528.855
aF492.287
aF464.90999999999997
aF477.662
aF434.00300000000004
aF458.971
aF360.802
aF443.839
aF552.1819999999999
aF505.20799999999997
aF472.81600000000003
aF539.6619999999999
aF452.843
aF514.153
aF419.186
aF474.611
aF1006.8820000000001
aF459.25100000000003
aF547.75
aF522.6070000000001
aF469.53000000000003
aF462.75600000000003
aF488.942
aF1031.952
aF765.933
aF379.07800000000003
aF496.20399999999995
aF436.32
aF463.09499999999997
aF440.679
aF443.19
aF478.118
aF541.5060000000001
aF669.762
aF497.09
aF512.541
aF433.089
aF398.56399999999996
aF493.015
aF432.738
aF511.742
aF478.541
aF510.77099999999996
aF780.965
aF688.519
aF463.031
aF484.542
aF467.789
aF453.238
aF495.394
aF506.26899999999995
aF515.827
aF480.93399999999997
aF377.295
aF570.9250000000001
aF513.485
aF432.124
aF481.726
aF435.075
aF421.051
aF411.614
aF413.891
aF543.926
aF654.0500000000001
aF426.204
aF384.156
aF461.792
aF394.792
aF627.9449999999999
aF642.879
aF495.87399999999997
aF1520.0130000000001
aa(lp4
F245.67000000000002
aF1405.8600000000001
aF246.507
aF692.392
aF242.684
aF239.05700000000002
aF246.109
aF256.655
aF236.81900000000002
aF240.78199999999998
aF247.534
aF418.91200000000003
aF241.29000000000002
aF234.735
aF257.04900000000004
aF249.97500000000002
aF10021.928999999998
aF243.924
aF236.911
aF249.989
aF498.793
aF5251.884
aF4662.483
aF463.899
aF128.536
aF254.001
aF127.719
aF239.07999999999998
aF253.406
aF339.93999999999994
aF251.24899999999997
aF253.424
aF876.894
aF251.124
aF236.61
aF1792.521
aF1747.4310000000003
aF250.00099999999998
aF370.01700000000005
aF238.32399999999998
aF368.32
aF327.413
aF375.109
aF250.809
aF248.757
aF225.68
aF245.247
aF2101.286
aF238.684
aF613.5150000000001
aF6757.413
aF591.676
aF2732.3309999999997
aF220.375
aF126.749
aF236.177
aF672.312
aF112.87
aF327.3
aF327.54999999999995
aF1119.365
aF1096.614
aF1265.342
aF1023.795
aF799.1610000000001
aF242.17700000000002
aF1232.662
aaI10
aI23
a(lp5
I3
aI3
aI3
aI3
aI3
aI3
aI3
aI3
aI3
aI3
aaF0.003
a.