(lp0
(lp1
I8
aI8
aI8
aI8
aI8
aI8
aI8
aI8
aI8
aI8
aI8
aI8
aI8
aI8
aI8
aI8
aI8
aI8
aI8
aI8
aI8
aI8
aI8
aI8
aI8
aI8
aI8
aI8
aI8
aI8
aI8
aI8
aI8
aI8
aI8
aI8
aI8
aI8
aI8
aI8
aI8
aI8
aI8
aI8
aI8
aI8
aI8
aI8
aI8
aI8
aI8
aI8
aI8
aI8
aI8
aI8
aI8
aI8
aI8
aI8
aI8
aI8
aI8
aI8
aI8
aI8
aI8
aI8
aI8
aI8
aI8
aI8
aI8
aI8
aI8
aI8
aI8
aI8
aI8
aI8
aI8
aI8
aI8
aI8
aI8
aI8
aI8
aI8
aI8
aI8
aI8
aI8
aI8
aI8
aI8
aI8
aI8
aI8
aI8
aI8
aI8
aI8
aI8
aI8
aI8
aI8
aI8
aI8
aI8
aI8
aI8
aI8
aI8
aI8
aI8
aI8
aI8
aI8
aI8
aI8
aI8
aI8
aI8
aI8
aI8
aI8
aI8
aI8
aI8
aI8
aI8
aI8
aI8
aI8
aI8
aI8
aI8
aI8
aI8
aI8
aI8
aI8
aI8
aI8
aI8
aI8
aI8
aI8
aI8
aI8
aI8
aI8
aI8
aI8
aI8
aI8
aI8
aI8
aI8
aI8
aI8
aI8
aI8
aI8
aI8
aI8
aI8
aI8
aI8
aI8
aI8
aI8
aI8
aI8
aI8
aI8
aI8
aI8
aI8
aI8
aa(lp2
F2.0
aF2.0
aF2.0
aF2.0
aF2.0
aF2.0
aF2.0
aF2.0
aF2.0
aF2.0
aF2.0
aF2.0
aF2.0
aF2.0
aF2.0
aF2.0
aF2.0
aF2.0
aF2.0
aF2.0
aF2.0
aF2.0
aF2.0
aF2.0
aF2.0
aF2.0
aF2.0
aF2.0
aF2.0
aF2.0
aF2.0
aF2.0
aF2.0
aF2.0
aF2.0
aF2.0
aF2.0
aF2.0
aF2.0
aF2.0
aF2.0
aF2.0
aF2.0
aF2.0
aF2.0
aF2.0
aF2.0
aF2.0
aF2.0
aF2.0
aF2.0
aF2.0
aF2.0
aF2.0
aF2.0
aF2.0
aF2.0
aF2.0
aF2.0
aF2.0
aF2.0
aF2.0
aF2.0
aF2.0
aF2.0
aF2.0
aF2.0
aF2.0
aF2.0
aF2.0
aF2.0
aF2.0
aF2.0
aF2.0
aF2.0
aF2.0
aF2.0
aF2.0
aF2.0
aF2.0
aF2.0
aF2.0
aF2.0
aF2.0
aF2.0
aF2.0
aF2.0
aF2.0
aF2.0
aF2.0
aF2.0
aF2.0
aF2.0
aF2.0
aF2.0
aF2.0
aF2.0
aF2.0
aF2.0
aF2.0
aF2.0
aF2.0
aF2.0
aF2.0
aF2.0
aF2.0
aF2.0
aF2.0
aF2.0
aF2.0
aF2.0
aF2.0
aF2.0
aF2.0
aF2.0
aF2.0
aF2.0
aF2.0
aF2.0
aF2.0
aF2.0
aF2.0
aF2.0
aF2.0
aF2.0
aF2.0
aF2.0
aF2.0
aF2.0
aF2.0
aF2.0
aF2.0
aF2.0
aF2.0
aF2.0
aF2.0
aF2.0
aF2.0
aF2.0
aF2.0
aF2.0
aF2.0
aF2.0
aF2.0
aF2.0
aF2.0
aF2.0
aF2.0
aF2.0
aF2.0
aF2.0
aF2.0
aF2.0
aF2.0
aF2.0
aF2.0
aF2.0
aF2.0
aF2.0
aF2.0
aF2.0
aF2.0
aF2.0
aF2.0
aF2.0
aF2.0
aF2.0
aF2.0
aF2.0
aF2.0
aF2.0
aF2.0
aF2.0
aF2.0
aF2.0
aF2.0
aF2.0
aF2.0
aF2.0
aF2.0
aa(lp3
F30.15
aF39.147
aF34.01499999999999
aF32.252
aF34.067
aF34.297000000000004
aF34.101
aF32.777
aF32.925000000000004
aF34.296
aF36.821
aF35.226
aF34.461
aF33.39
aF36.911
aF32.614
aF35.041999999999994
aF35.989
aF35.781
aF36.083
aF34.256
aF34.553
aF33.229
aF33.42
aF35.693000000000005
aF35.191
aF35.032000000000004
aF35.716
aF32.715
aF34.946999999999996
aF37.719
aF32.887
aF34.78
aF34.202000000000005
aF34.948
aF33.651
aF30.131
aF36.055
aF34.052
aF35.784000000000006
aF38.439
aF37.152
aF29.42
aF33.548
aF32.802
aF34.806999999999995
aF36.375
aF36.23500000000001
aF34.657000000000004
aF35.575
aF34.528000000000006
aF34.882000000000005
aF34.571999999999996
aF35.092
aF34.485
aF34.7
aF36.937999999999995
aF34.603
aF35.782000000000004
aF35.312999999999995
aF36.198
aF35.08
aF34.007999999999996
aF33.774
aF42.702999999999996
aF36.087
aF33.44
aF35.992999999999995
aF36.46
aF33.628
aF34.477000000000004
aF35.845
aF34.126999999999995
aF35.981
aF34.569
aF33.891
aF34.44
aF36.566
aF34.12
aF34.069
aF31.665
aF36.179
aF29.162
aF29.860999999999997
aF33.937000000000005
aF35.419
aF33.050000000000004
aF33.25
aF34.96
aF29.582
aF35.105
aF35.919
aF36.793
aF36.149
aF34.335
aF36.947
aF35.831
aF34.698
aF33.702000000000005
aF34.891
aF32.925000000000004
aF33.397999999999996
aF36.668
aF35.213
aF40.383
aF38.045
aF36.089000000000006
aF35.926
aF35.681999999999995
aF35.492000000000004
aF35.72
aF33.649
aF36.19
aF35.505
aF34.787
aF35.561
aF35.003
aF33.671
aF32.68
aF37.135
aF35.06
aF34.117000000000004
aF34.5
aF33.914
aF30.689
aF33.435
aF36.46
aF32.974000000000004
aF33.096000000000004
aF34.305
aF31.16
aF34.589
aF35.558
aF35.677
aF34.728
aF33.972
aF34.999
aF33.702999999999996
aF33.896
aF35.406
aF33.628
aF32.910000000000004
aF34.756
aF33.233
aF33.967
aF33.832
aF35.888000000000005
aF33.395
aF35.322
aF33.728
aF35.476
aF36.098
aF37.466
aF37.297999999999995
aF35.474
aF30.899
aF33.805
aF34.324
aF34.803
aF36.164
aF35.2
aF35.974
aF34.342999999999996
aF34.025
aF33.924
aF34.102000000000004
aF33.914
aF36.973
aF29.88
aF35.659000000000006
aF37.522
aF32.531
aF34.566
aF34.712
aF35.391
aF34.784
aF34.196
aF33.175999999999995
aF35.7
aF36.184
aa(lp4
F20.677999999999997
aF23.444
aF21.005
aF18.561
aF19.77
aF20.145
aF19.54
aF19.046
aF20.629
aF20.038
aF19.554
aF19.73
aF21.101000000000003
aF19.599999999999998
aF19.657
aF19.115
aF17.881999999999998
aF19.77
aF21.35
aF22.166999999999998
aF19.654
aF20.453
aF21.489
aF18.827
aF19.048
aF18.794
aF18.718
aF18.822
aF18.585
aF21.296
aF21.602
aF21.883
aF20.518
aF19.414
aF19.904
aF21.468
aF19.57
aF19.184
aF21.661
aF19.963
aF21.017
aF18.81
aF18.716
aF19.346
aF19.015
aF18.617
aF20.792
aF19.59
aF19.104
aF20.216
aF18.89
aF20.826
aF20.012999999999998
aF20.192999999999998
aF20.025000000000002
aF19.536
aF20.303
aF19.805
aF19.380000000000003
aF20.225
aF20.320999999999998
aF19.980999999999998
aF21.744
aF19.755000000000003
aF21.415
aF20.604999999999997
aF20.566000000000003
aF20.409
aF19.994999999999997
aF20.067999999999998
aF20.433
aF19.011
aF20.424
aF19.801
aF19.337
aF21.353
aF20.561
aF19.796
aF19.028
aF20.101999999999997
aF19.884
aF19.587
aF20.007
aF19.863
aF18.854
aF21.213
aF20.343
aF19.831999999999997
aF19.945
aF18.955
aF19.066
aF19.454
aF19.567
aF19.709
aF20.274
aF19.882
aF19.893
aF18.849999999999998
aF20.152
aF19.828
aF19.384999999999998
aF19.789
aF18.914
aF20.188000000000002
aF21.247
aF20.36
aF18.415999999999997
aF20.326
aF19.198
aF20.316000000000003
aF39.92
aF19.262
aF21.416999999999998
aF19.468
aF19.717
aF23.092000000000002
aF19.988
aF20.56
aF20.132
aF22.494
aF19.41
aF19.624
aF18.229
aF19.296
aF18.362
aF19.847
aF20.375
aF38.755
aF20.255
aF19.073
aF19.276999999999997
aF18.772000000000002
aF19.564
aF18.893
aF18.278
aF21.596
aF20.650000000000002
aF20.101
aF20.541
aF19.373
aF20.608
aF19.414
aF21.149
aF18.823
aF19.131
aF18.464000000000002
aF20.369000000000003
aF20.897
aF40.266000000000005
aF18.741
aF20.519
aF19.54
aF19.872
aF18.793
aF19.895
aF39.763000000000005
aF18.814
aF19.366
aF19.262999999999998
aF20.330000000000002
aF18.584
aF19.017
aF19.401999999999997
aF19.859
aF20.744
aF19.739
aF19.753
aF19.221999999999998
aF19.404
aF19.576
aF19.594
aF20.866
aF19.703
aF19.524
aF19.418000000000003
aF19.997999999999998
aF18.487
aF19.391
aF20.284
aF19.282
aaI0
aI0
a(lp5
aF0.003
a.