(lp0
(lp1
I14
aI14
aI14
aI14
aI14
aa(lp2
F2.7857142857142856
aF2.7857142857142856
aF2.7857142857142856
aF2.7857142857142856
aF2.7857142857142856
aa(lp3
F159.408
aF206.217
aF550.14
aF210.517
aF553.568
aa(lp4
F155.278
aF161.145
aF552.198
aF160.545
aF546.721
aa(lp5
F34.313
aF70.88499999999999
aF34.055
aF35.199
aF36.0
aa(lp6
F35.485
aF54.105999999999995
aF35.768
aF35.515
aF36.146
aa(lp7
I0
aI1
aI0
aI0
aI0
aa.