(lp0
(lp1
I16
aI16
aI16
aa(lp2
F1.9375
aF2.0
aF1.9375
aa(lp3
F164.463
aF330.51599999999996
aF167.667
aa(lp4
F170.603
aF326.401
aF171.321
aa(lp5
F74.09
aF38.233999999999995
aF77.61399999999999
aa(lp6
F59.038
aF39.637
aF59.358000000000004
aa(lp7
I1
aI0
aI1
aa.