(lp0
(lp1
I24
aI24
aI24
aI24
aa(lp2
F2.0416666666666665
aF1.7083333333333333
aF1.875
aF1.875
aa(lp3
F396.765
aF135.669
aF312.69599999999997
aF275.383
aa(lp4
F391.155
aF146.59
aF317.98900000000003
aF275.049
aa(lp5
F127.072
aF117.394
aF119.932
aF63.943
aa(lp6
F95.20400000000001
aF275.608
aF126.667
aF67.45700000000001
aa(lp7
I1
aI7
aI2
aI0
aa.