(lp0
(lp1
F1.1192186969796585
aF0.979370889075903
aF0.7759123024228264
aF1.0002645990202685
aF0.9650513772568828
aF1.140274450227938
aF0.9663955441408172
aF1.2012811228996751
aF1.179289506390552
aF0.7261224060631454
aF1.1446321542350484
aF1.1956076293371556
aF0.8789827465326002
aF0.8420901584149694
aF1.254159575272157
aF0.9532971714829295
aF0.7735245493213829
aF0.8165935378192535
aF0.8280269753382759
aF0.8546597654872197
aF0.9358656557665765
aF0.9261990169174676
aF1.134275307484854
aF1.1427364967047304
aF0.8590282020600434
aF0.9304105388189431
aF1.1106708497801698
aF0.8008334351238692
aF0.7634038556785931
aF0.8762073342753407
aF0.9581073260703268
aF0.8342362696938841
aF1.1799867646036375
aF1.2337457616140113
aF1.2259931919274758
aF0.7490572389870712
aF1.107784806204168
aF1.118816814121215
aF1.0403239502247121
aa(lp2
F1.1192186969796585
aF0.979370889075903
aF0.7759123024228264
aF0.9650513772568828
aF1.140274450227938
aF0.9663955441408172
aF1.2012811228996751
aF1.179289506390552
aF0.7261224060631454
aF0.9120235655348496
aF1.1446321542350484
aF0.8789827465326002
aF0.7362637075928768
aF1.254159575272157
aF0.9121561099173761
aF0.8165935378192535
aF0.8280269753382759
aF0.8546597654872197
aF0.8590282020600434
aF0.9304105388189431
aF1.1106708497801698
aF0.9174940141278911
aF0.7980066327126718
aF0.7634038556785931
aF0.8762073342753407
aF0.9581073260703268
aF0.8342362696938841
aF0.7582575926133106
aF1.1799867646036375
aF1.2337457616140113
aF1.2259931919274758
aF0.7490572389870712
aF1.107784806204168
aF0.8950159594548811
aF1.0403239502247121
aa(lp3
F1.147948412359376
aF0.9120235655348496
aF0.7362637075928768
aF0.9121561099173761
aF1.0972467759026898
aF0.9011766343890182
aF0.9174940141278911
aF0.7980066327126718
aF0.7582575926133106
aF0.8950159594548811
aF0.9042536503487666
aa(lp4
F1.0002645990202685
aF1.147948412359376
aF1.1956076293371556
aF0.8420901584149694
aF0.9532971714829295
aF0.7735245493213829
aF1.0972467759026898
aF0.9358656557665765
aF0.9261990169174676
aF1.134275307484854
aF0.9011766343890182
aF1.1427364967047304
aF0.8008334351238692
aF1.118816814121215
aF0.9042536503487666
aa(lp5
F850.0
aF940.0
aF710.0
aF1210.0
aF1070.0
aF770.0
aF850.0
aF990.0
aF860.0
aF1090.0
aF760.0
aF860.0
aF820.0
aF1280.0
aF1140.0
aF1110.0
aF720.0
aF1270.0
aF1020.0
aF890.0
aF1070.0
aF730.0
aF720.0
aF950.0
aF790.0
aF780.0
aF1110.0
aF1220.0
aF800.0
aF750.0
aF1190.0
aF1250.0
aF820.0
aF920.0
aF960.0
aF970.0
aF990.0
aF1150.0
aF870.0
aa(lp6
F850.0
aF940.0
aF710.0
aF1070.0
aF770.0
aF850.0
aF990.0
aF860.0
aF1090.0
aF730.0
aF760.0
aF820.0
aF1170.0
aF1140.0
aF1050.0
aF1270.0
aF1020.0
aF890.0
aF790.0
aF780.0
aF1110.0
aF870.0
aF740.0
aF800.0
aF750.0
aF1190.0
aF1250.0
aF1000.0
aF820.0
aF920.0
aF960.0
aF970.0
aF990.0
aF1000.0
aF870.0
aa(lp7
(lp8
F1010.0
aF730.0
aF1170.0
aF1050.0
aF1260.0
aF1070.0
aF870.0
aF740.0
aF1000.0
aF1000.0
aF1150.0
aa(lp9
I3
aI2
aI3
aI3
aI3
aI3
aI2
aI3
aI3
aI3
aI3
aaa(lp10
(lp11
F1210.0
aF1010.0
aF860.0
aF1280.0
aF1110.0
aF720.0
aF1260.0
aF1070.0
aF730.0
aF720.0
aF1070.0
aF950.0
aF1220.0
aF1150.0
aF1150.0
aa(lp12
I3
aI3
aI3
aI3
aI3
aI3
aI3
aI3
aI3
aI3
aI3
aI3
aI3
aI3
aI3
aaa.