(lp0
(lp1
F1.2725933545834103
aF1.152050504618676
aF0.9712148902151116
aF1.0834214108489224
aF1.1813766894712103
aF0.8002338511873586
aF1.2889854490453891
aF1.2807550128615044
aF1.1495244182525333
aF0.7611406136792844
aF1.0217320308279207
aF0.9296994059834511
aF0.7011337805512037
aF0.9581803184215593
aF1.067181798034617
aF0.850682797437313
aF0.9989632218569757
aF1.2390673804159253
aF1.2543334951224738
aa(lp2
F0.8755743238897651
aF0.9296994059834511
aa(lp3
F0.8755743238897651
aa(lp4
F1.2725933545834103
aF1.152050504618676
aF0.9712148902151116
aF1.0834214108489224
aF1.1813766894712103
aF0.8002338511873586
aF1.2889854490453891
aF1.2807550128615044
aF1.1495244182525333
aF0.7611406136792844
aF1.0217320308279207
aF0.7011337805512037
aF0.9581803184215593
aF1.067181798034617
aF0.850682797437313
aF0.9989632218569757
aF1.2390673804159253
aF1.2543334951224738
aa(lp5
F1110.0
aF820.0
aF1260.0
aF870.0
aF1040.0
aF870.0
aF970.0
aF1190.0
aF1130.0
aF1040.0
aF1220.0
aF1150.0
aF790.0
aF1170.0
aF1290.0
aF700.0
aF870.0
aF1010.0
aF1050.0
aa(lp6
F760.0
aF1150.0
aa(lp7
(lp8
F760.0
aa(lp9
I3
aaa(lp10
(lp11
F1110.0
aF820.0
aF1260.0
aF870.0
aF1040.0
aF870.0
aF970.0
aF1190.0
aF1130.0
aF1040.0
aF1220.0
aF790.0
aF1170.0
aF1290.0
aF700.0
aF870.0
aF1010.0
aF1050.0
aa(lp12
I4
aI4
aI3
aI4
aI4
aI3
aI4
aI4
aI4
aI3
aI3
aI3
aI3
aI4
aI3
aI3
aI4
aI4
aaa.