(lp0
(lp1
I12
aI12
aI12
aI12
aI12
aI12
aI12
aI12
aI12
aI12
aI12
aI12
aI12
aI12
aI12
aI12
aI12
aI12
aI12
aI12
aa(lp2
F5.083333333333333
aF5.083333333333333
aF5.083333333333333
aF5.083333333333333
aF5.083333333333333
aF5.083333333333333
aF5.083333333333333
aF5.083333333333333
aF5.083333333333333
aF5.083333333333333
aF5.083333333333333
aF5.083333333333333
aF5.083333333333333
aF5.083333333333333
aF5.083333333333333
aF5.083333333333333
aF5.083333333333333
aF5.083333333333333
aF5.083333333333333
aF5.083333333333333
aa(lp3
F354.328
aF998.5169999999999
aF346.096
aF355.086
aF816.275
aF353.312
aF355.274
aF356.36
aF2177.872
aF358.731
aF359.538
aF337.617
aF2066.69
aF648.231
aF361.238
aF351.132
aF321.164
aF316.432
aF1697.6599999999999
aF348.90700000000004
aa(lp4
F117.375
aF120.92699999999999
aF116.154
aF120.34
aF122.76599999999999
aF119.924
aF81.447
aF114.854
aF118.227
aF119.607
aF84.32499999999999
aF78.96000000000001
aF124.89200000000001
aF122.114
aF115.23000000000002
aF118.619
aF116.94000000000001
aF77.181
aF121.488
aF78.394
aaI0
aI0
a(lp5
a.