(lp0
(lp1
I10
aI10
aI10
aI10
aI10
aI10
aI10
aI10
aI10
aI10
aa(lp2
F7.4
aF7.4
aF7.4
aF7.4
aF7.4
aF7.4
aF7.4
aF7.4
aF7.4
aF7.4
aa(lp3
F159.20999999999998
aF157.472
aF149.822
aF160.556
aF151.423
aF156.12400000000002
aF156.554
aF158.955
aF156.599
aF153.915
aa(lp4
F153.143
aF150.811
aF150.177
aF154.484
aF153.93
aF155.68
aF159.952
aF153.57999999999998
aF158.797
aF154.60199999999998
aa(lp5
F29.419
aF28.169
aF28.060000000000002
aF28.649
aF29.489
aF28.956
aF30.237
aF29.159000000000002
aF29.421
aF29.558
aa(lp6
F29.090999999999998
aF28.442
aF27.990000000000002
aF28.56
aF28.27
aF29.299
aF29.37
aF29.888
aF28.532
aF32.286
aa(lp7
I0
aI0
aI0
aI0
aI0
aI0
aI0
aI0
aI0
aI0
aa.