(lp0
(lp1
F-3.1
aF0.2
aF0.98
aF0.0
aF0.0
aF0.0
aF1.0
aF0.0
aF0.0
aF0.0
aF0.0
aF0.0
aF0.0
aF0.0
aF0.0
aa(lp2
F-2.8539391236335314
aF0.20669082833836136
aF0.9698550299698318
aF0.0
aF0.0
aF-0.00846112841289029
aF0.9999642040123139
aF0.0
aF0.0
aF0.3
aF-0.005077222286799491
aF0.030463333720796994
aF0.0
aF-0.0038949605498568647
aF0.02336976329914122
aa(lp3
F-2.4639391236335313
aF0.19793218084460512
aF1.0326912950693543
aF0.0
aF0.0
aF-0.010574818828079677
aF0.9999440850401353
aF0.0
aF0.0
aF0.3
aF-0.006345955818284085
aF0.059457174513880745
aF0.0
aF0.0025384667871637704
aF-0.041965546958617206
aa(lp4
F-2.0739391236335316
aF0.1918274427159892
aF1.0745247347573676
aF0.0
aF0.0
aF-0.005076385423282729
aF0.9999871150725065
aF0.0
aF0.0
aF0.3
aF-0.003045948994971184
aF0.004901963467678391
aF0.0
aF0.0025384667871637704
aF-0.041965546958617206
aa(lp5
F-1.6839391236335315
aF0.19000876835557645
aF1.0457139461058298
aF0.0
aF0.0
aF0.00029203556668858
aF0.999999957357613
aF0.0
aF0.0
aF0.3
aF0.00017522136242871978
aF-0.04410694058553139
aF0.0
aF0.001750757344617725
aF0.013451427141424575
aa(lp6
F-1.2939391236335316
aF0.19171594608293577
aF0.9997413792791426
aF0.0
aF0.0
aF0.004085240911718565
aF0.9999916553685301
aF0.0
aF0.0
aF0.3
aF0.002451205910431762
aF-0.026620085301679447
aF0.0
aF0.001750757344617725
aF0.013451427141424575
aa(lp7
F-0.9039391236335315
aF0.19621350062898102
aF0.9765017243214631
aF0.0
aF0.0
aF0.006068364792882177
aF0.9999815873048565
aF0.0
aF0.0
aF0.3
aF0.003641220010985839
aF-0.009133230017827489
aF0.0
aF-0.001750757344617725
aF0.013451427141424575
aa(lp8
F-0.5139391236335316
aF0.19946769668706063
aF0.9759949812327912
aF0.0
aF0.0
aF0.002275374767579107
aF0.9999974113314829
aF0.0
aF0.0
aF0.3
aF0.0013652354629827973
aF0.008353625266024456
aF0.0
aF-0.001750757344617725
aF0.013451427141424575
aa(lp9
F-0.23444915391547125
aF0.2
aF0.9841617652629013
aF0.0
aF0.0
aF0.0
aF1.0
aF0.0
aF0.0
aF0.15202029212215634
aF0.0
aF0.016000545529919214
aF0.1
aF0.0
aF0.030758276966892133
aa(lp10
F0.04767722584333217
aF0.2
aF1.0309532184888202
aF0.0
aF0.0
aF0.0
aF1.0
aF0.0
aF0.0
aF0.2820202921221564
aF0.0
aF0.05598630558687901
aF0.1
aF0.0
aF0.030758276966892133
aa(lp11
F0.43606087636646884
aF0.2
aF1.1297261597887867
aF0.0
aF0.0
aF0.0
aF1.0
aF0.0
aF0.0
aF0.3
aF0.0
aF0.09597206564383876
aF0.0
aF0.0
aF0.030758276966892133
aa(lp12
F0.8260608763664692
aF0.2
aF1.2804802045275863
aF0.0
aF0.0
aF0.0
aF1.0
aF0.0
aF0.0
aF0.3
aF0.0
aF0.13574028750674863
aF0.0
aF0.0
aF-0.030758276966892133
aa(lp13
F1.2160608763664693
aF0.2
aF1.4309518342493357
aF0.0
aF0.0
aF0.0
aF1.0
aF0.0
aF0.0
aF0.3
aF0.0
aF0.09575452744978885
aF0.0
aF0.0
aF-0.030758276966892133
aa(lp14
F1.5356279054337705
aF0.2
aF1.5294419758970372
aF0.0
aF0.0
aF0.0
aF1.0
aF0.0
aF0.0
aF0.18131304121117675
aF0.0
aF0.055768767392829044
aF-0.1
aF0.0
aF-0.030758276966892133
aa(lp15
F1.6868348590083
aF0.2
aF1.575950629470691
aF0.0
aF0.0
aF0.0
aF1.0
aF0.0
aF0.0
aF0.05131304121117741
aF0.0
aF0.015783007335869473
aF-0.1
aF0.0
aF-0.030758276966892133
aa(lp16
F1.8393149749176296
aF0.17832926880798144
aF1.58
aF0.0
aF0.0
aF-0.17080108925365473
aF0.985305530234031
aF0.0
aF0.0
aF0.15409927403985352
aF-0.05508087115217585
aF0.0
aF-0.05833333333333339
aF-0.07
aF0.0
aa(lp17
F1.9903523645027728
aF0.047574136310152754
aF1.58
aF0.0
aF0.0
aF-0.5136825514471158
aF0.8579803239811395
aF0.0
aF0.0
aF0.07826594070652006
aF-0.1460808711521759
aF0.0
aF-0.05833333333333339
aF-0.07
aF0.0
aa(lp18
F2.042806420754582
aF-0.19165963186336
aF1.58
aF0.0
aF0.0
aF-0.702793662012842
aF0.7113937507699791
aF0.0
aF0.0
aF0.0024326073731867
aF-0.2
aF0.0
aF-0.058333333333333355
aF0.0
aF0.0
aa(lp19
F1.9966771436730582
aF-0.435146987786559
aF1.58
aF0.0
aF-0.0
aF-0.8470654166945932
aF0.5314886450715717
aF0.0
aF0.0
aF-0.0734007259601467
aF-0.1519191288478239
aF0.0
aF-0.058333333333333355
aF0.07
aF0.0
aa(lp20
F1.851964533258201
aF-0.57349185528873
aF1.58
aF0.0
aF-0.0
aF-0.9812828000265482
aF0.1925722367633992
aF0.0
aF0.0
aF-0.14923405929348
aF-0.06091912884782409
aF0.0
aF-0.058333333333333424
aF0.07
aF0.0
aa(lp21
F1.5955881475392149
aF-0.6
aF1.58
aF0.0
aF0.0
aF1.0
aF0.0
aF0.0
aF0.0
aF-0.2859453461490746
aF0.0
aF0.0
aF-0.2
aF0.0
aF0.0
aa(lp22
F1.206081980776389
aF-0.6
aF1.58
aF0.0
aF0.0
aF1.0
aF0.0
aF0.0
aF0.0
aF-0.3
aF0.0
aF0.0
aF0.0
aF0.0
aF0.0
aa(lp23
F0.8160819807763876
aF-0.6
aF1.58
aF0.0
aF0.0
aF1.0
aF0.0
aF0.0
aF0.0
aF-0.3
aF0.0
aF0.0
aF0.0
aF0.0
aF0.0
aa(lp24
F0.4260819807763885
aF-0.6
aF1.58
aF0.0
aF0.0
aF1.0
aF0.0
aF0.0
aF0.0
aF-0.3
aF0.0
aF0.0
aF0.0
aF0.0
aF0.0
aa(lp25
F0.036081980776387246
aF-0.6
aF1.58
aF0.0
aF0.0
aF1.0
aF0.0
aF0.0
aF0.0
aF-0.3
aF0.0
aF0.0
aF0.0
aF0.0
aF0.0
aa(lp26
F-0.353918019223612
aF-0.6
aF1.58
aF0.0
aF0.0
aF1.0
aF0.0
aF0.0
aF0.0
aF-0.3
aF0.0
aF0.0
aF0.0
aF0.0
aF0.0
aa(lp27
F-0.7439180192236111
aF-0.6
aF1.58
aF0.0
aF0.0
aF1.0
aF0.0
aF0.0
aF0.0
aF-0.3
aF0.0
aF0.0
aF0.0
aF0.0
aF0.0
aa(lp28
F-1.1339180192236102
aF-0.6
aF1.58
aF0.0
aF0.0
aF1.0
aF0.0
aF0.0
aF0.0
aF-0.3
aF0.0
aF0.0
aF0.0
aF0.0
aF0.0
aa(lp29
F-1.5212591607738744
aF-0.6
aF1.58
aF0.0
aF0.0
aF1.0
aF0.0
aF0.0
aF0.0
aF-0.26738798718426
aF0.0
aF0.0
aF0.19999999999999962
aF0.0
aF0.0
aa(lp30
F-1.6998635441134131
aF-0.6
aF1.58
aF0.0
aF0.0
aF1.0
aF0.0
aF0.0
aF0.0
aF-0.0073879871842578715
aF0.0
aF0.0
aF0.2
aF0.0
aF0.0
aa.