(lp0
(lp1
F-3.1
aF0.2
aF0.98
aF0.0
aF0.0
aF0.0
aF1.0
aF0.0
aF0.0
aF0.0
aF0.0
aF0.0
aF0.0
aF0.0
aF0.0
aa(lp2
F-2.830992613221867
aF0.2043814145853315
aF0.998820630449791
aF0.0
aF0.0
aF0.008744514960096279
aF0.9999617659981369
aF0.0
aF0.0
aF0.3
aF0.0052473108608084695
aF0.022268482047260788
aF0.0
aF-0.004118593781118718
aF-0.017720598863088976
aa(lp3
F-2.4409926132218667
aF0.20895698750780545
aF1.031469565422701
aF0.0
aF0.0
aF0.0031390763829431422
aF0.9999950730875938
aF0.0
aF0.0
aF0.3
aF0.0018834736689409646
aF0.027707061016647654
aF0.0
aF-0.0025229265696999955
aF-0.010437526313427117
aa(lp4
F-2.0509926132218665
aF0.20997578002516018
aF1.0647059283137106
aF0.0
aF0.0
aF-0.000468848360731679
aF0.9999998900906013
aF0.0
aF0.0
aF0.3
aF-0.00028130910919455594
aF0.017101655725759238
aF0.0
aF-0.0016376051984592379
aF-0.016481595201851964
aa(lp5
F-1.6609926132218662
aF0.20827949406154014
aF1.0730109889205521
aF0.0
aF0.0
aF-0.0032640872105896995
aF0.9999946728531517
aF0.0
aF0.0
aF0.3
aF-0.0019584836257990233
aF-0.004329070222024098
aF0.0
aF-0.0010536437888143727
aF-0.016556800797170642
aa(lp6
F-1.2709926132218665
aF0.20485354758293672
aF1.0533927009583117
aF0.0
aF0.0
aF-0.005197701938487532
aF0.9999864918560444
aF0.0
aF0.0
aF0.3
aF-0.00311874754913417
aF-0.02585291125834592
aF0.0
aF0.0010536437888143727
aF-0.016556800797170642
aa(lp7
F-0.8809926132218663
aF0.20168950477061046
aF1.0100929475451106
aF0.0
aF0.0
aF-0.002914980552148033
aF0.9999957514351652
aF0.0
aF0.0
aF0.3
aF-0.0017490106236754846
aF-0.030502342450146838
aF0.0
aF0.0010536437888143727
aF0.016556800797170642
aa(lp8
F-0.4909926132218669
aF0.2002066360371531
aF0.9836972447665326
aF0.0
aF0.0
aF-0.0009793505882132137
aF0.9999995204360976
aF0.0
aF0.0
aF0.3
aF-0.0005876111983194213
aF-0.010513860300819453
aF0.0
aF0.0008354954081281412
aF0.01494913988732449
aa.