(lp0
(lp1
F-1.8
aF0.0
aF0.98
aF0.0
aF0.0
aF0.0
aF1.0
aF0.0
aF0.0
aF0.1
aF0.0
aF0.0
aF0.0
aF0.0
aF0.0
aa(lp2
F-1.6961973743775465
aF0.05
aF0.98
aF0.0
aF0.0
aF0.36570545901446017
aF0.9307306362460747
aF0.0
aF0.0
aF0.1076052512449072
aF0.1
aF0.0
aF0.0076052512449072
aF0.1
aF0.0
aa(lp3
F-1.5847894975101857
aF0.1875
aF0.98
aF0.0
aF0.0
aF0.44207903346648425
aF0.8969761023401566
aF0.0
aF0.0
aF0.1152105024898144
aF0.15
aF0.0
aF0.0076052512449072
aF0.0
aF0.0
aa(lp4
F-1.4657763693979176
aF0.3375
aF0.98
aF0.0
aF0.0
aF0.42807058894142586
aF0.9037453019979361
aF0.0
aF0.0
aF0.1228157537347216
aF0.15
aF0.0
aF0.0076052512449072
aF0.0
aF0.0
aa(lp5
F-1.3392108042854987
aF0.4875
aF0.98
aF0.0
aF0.0
aF0.4168423971536738
aF0.908978776394245
aF0.0
aF0.0
aF0.12915346310547762
aF0.15
aF0.0
aF-0.0076052512449072
aF0.0
aF0.0
aa(lp6
F-1.2138599668024748
aF0.6375
aF0.98
aF0.0
aF0.0
aF0.43036466111027916
aF0.9026551160146574
aF0.0
aF0.0
aF0.12154821186057041
aF0.15
aF0.0
aF-0.0076052512449072
aF0.0
aF0.0
aa(lp7
F-1.0961143805643578
aF0.7874999999999999
aF0.98
aF0.0
aF0.0
aF0.44447086015891635
aF0.8957933101277287
aF0.0
aF0.0
aF0.11394296061566321
aF0.15
aF0.0
aF-0.0076052512449072
aF0.0
aF0.0
aa(lp8
F-0.9859740455711484
aF0.9152777777777777
aF0.98
aF0.0
aF0.0
aF0.32626629035402277
aF0.9452778997620882
aF0.0
aF0.0
aF0.10633770937075601
aF0.08333333333333327
aF0.0
aF-0.0076052512449072
aF-0.1
aF0.0
aa(lp9
F-0.8819444444444444
aF0.95
aF0.98
aF0.0
aF0.0
aF0.0
aF1.0
aF0.0
aF0.0
aF0.1166666666666667
aF0.0
aF0.0
aF0.1
aF0.0
aF0.0
aa(lp10
F-0.7152777777777777
aF0.95
aF0.98
aF0.0
aF0.0
aF0.0
aF1.0
aF0.0
aF0.0
aF0.2166666666666667
aF0.0
aF0.0
aF0.1
aF0.0
aF0.0
aa(lp11
F-0.44861111111111107
aF0.95
aF0.98
aF0.0
aF0.0
aF0.0
aF1.0
aF0.0
aF0.0
aF0.3166666666666667
aF0.0
aF0.0
aF0.1
aF0.0
aF0.0
aa(lp12
F-0.08333333333333319
aF0.95
aF0.98
aF0.0
aF0.0
aF0.0
aF1.0
aF0.0
aF0.0
aF0.4
aF0.0
aF0.0
aF0.0
aF0.0
aF0.0
aa(lp13
F0.31657986111111125
aF0.95
aF0.98
aF0.0
aF0.0
aF0.0
aF1.0
aF0.0
aF0.0
aF0.39583333333333337
aF0.0
aF0.0
aF-0.1
aF0.0
aF0.0
aa(lp14
F0.6624131944444447
aF0.95
aF0.98
aF0.0
aF0.0
aF0.0
aF1.0
aF0.0
aF0.0
aF0.2958333333333334
aF0.0
aF0.0
aF-0.1
aF0.0
aF0.0
aa(lp15
F0.908246527777778
aF0.95
aF0.98
aF0.0
aF0.0
aF0.0
aF1.0
aF0.0
aF0.0
aF0.19583333333333336
aF0.0
aF0.0
aF-0.1
aF0.0
aF0.0
aa(lp16
F1.0542534722222223
aF0.9499255952380952
aF0.98
aF0.0
aF0.0
aF-0.017135306023503126
aF0.9998531798656646
aF0.0
aF0.0
aF0.1041666666666667
aF-0.0035714285714285947
aF0.0
aF0.09999999999999998
aF-0.08571428571428566
aF0.0
aa(lp17
F1.1937500000000003
aF0.9034970238095237
aF0.98
aF0.0
aF0.0
aF-0.2652424509673116
aF0.9641817474962142
aF0.0
aF0.0
aF0.15
aF-0.08928571428571433
aF0.0
aF0.0
aF-0.08571428571428566
aF0.0
aa(lp18
F1.3437500000000002
aF0.7749999999999999
aF0.98
aF0.0
aF0.0
aF-0.3826834323650898
aF0.9238795325112867
aF0.0
aF0.0
aF0.15
aF-0.15
aF0.0
aF0.0
aF0.0
aF0.0
aa(lp19
F1.4937500000000001
aF0.6249999999999999
aF0.98
aF0.0
aF0.0
aF-0.3826834323650898
aF0.9238795325112867
aF0.0
aF0.0
aF0.15
aF-0.15
aF0.0
aF0.0
aF0.0
aF0.0
aa(lp20
F1.6437500000000003
aF0.4749999999999998
aF0.98
aF0.0
aF0.0
aF-0.3826834323650898
aF0.9238795325112867
aF0.0
aF0.0
aF0.15
aF-0.15
aF0.0
aF0.0
aF0.0
aF0.0
aa(lp21
F1.7937500000000002
aF0.32499999999999984
aF0.98
aF0.0
aF0.0
aF-0.3826834323650898
aF0.9238795325112867
aF0.0
aF0.0
aF0.15
aF-0.15
aF0.0
aF0.0
aF0.0
aF0.0
aa(lp22
F1.94375
aF0.17499999999999982
aF0.98
aF0.0
aF0.0
aF-0.3826834323650898
aF0.9238795325112867
aF0.0
aF0.0
aF0.15
aF-0.15
aF0.0
aF0.0
aF0.0
aF0.0
aa(lp23
F2.09375
aF0.04650297619047615
aF0.98
aF0.0
aF0.0
aF-0.2652424509673113
aF0.9641817474962142
aF0.0
aF0.0
aF0.15
aF-0.08928571428571422
aF0.0
aF0.0
aF0.08571428571428566
aF0.0
aa(lp24
F2.1978298611111113
aF7.44047619047894e-05
aF0.98
aF0.0
aF0.0
aF-0.032913439261416606
aF0.9994582059876166
aF0.0
aF0.0
aF0.05416666666666663
aF-0.0035714285714285587
aF0.0
aF-0.09999999999999998
aF0.08571428571428566
aF0.0
aa.