(dp0
S'planning/base_link_0aff0_14'
p1
((lp2
(lp3
F-2.853196859359741
aF0.5327754020690918
aF0.05000000074505806
aa(lp4
F-2.853196859359741
aF0.19277521967887878
aF0.05000000074505806
aa(lp5
F-2.5131967067718506
aF0.1927751749753952
aF0.05000000074505806
aa(lp6
F-2.5131967067718506
aF0.5327752828598022
aF0.05000000074505806
aa(lp7
F0.0
aF0.0
aF1.0
atp8
sS'planning/base_link_0aff0_18'
p9
((lp10
(lp11
F-3.37453556060791
aF0.5422619581222534
aF0.0
aa(lp12
F-3.37453556060791
aF-0.15773800015449524
aF0.0
aa(lp13
F-2.87453556060791
aF-0.15773800015449524
aF0.0
aa(lp14
F-2.87453556060791
aF0.5422619581222534
aF0.0
aa(lp15
F0.0
aF0.0
aF1.0
atp16
sS'planning/base_link_0aff0_12'
p17
((lp18
(lp19
F-1.2931967973709106
aF0.5327751636505127
aF0.10000000149011612
aa(lp20
F-1.6331967115402222
aF0.5327751636505127
aF0.10000000149011612
aa(lp21
F-1.6331967115402222
aF0.19277511537075043
aF0.10000000149011612
aa(lp22
F-1.2931967973709106
aF0.19277510046958923
aF0.10000000149011612
aa(lp23
F-0.0
aF0.0
aF1.0
atp24
sS'planning/base_link_0aff0_9'
p25
((lp26
(lp27
F-1.893196940422058
aF0.18277539312839508
aF0.20000000298023224
aa(lp28
F-2.23319673538208
aF0.18277540802955627
aF0.20000000298023224
aa(lp29
F-2.23319673538208
aF-0.15722471475601196
aF0.20000000298023224
aa(lp30
F-1.893196940422058
aF-0.15722474455833435
aF0.20000000298023224
aa(lp31
F0.0
aF0.0
aF1.0
atp32
sS'planning/base_link_0aff0_8'
p33
((lp34
(lp35
F-2.0931968688964844
aF0.5327752828598022
aF0.15000000596046448
aa(lp36
F-2.433197021484375
aF0.5327752828598022
aF0.15000000596046448
aa(lp37
F-2.433197021484375
aF0.1927751749753952
aF0.15000000596046448
aa(lp38
F-2.0931968688964844
aF0.192775160074234
aF0.15000000596046448
aa(lp39
F-0.0
aF0.0
aF1.0
atp40
sS'planning/base_link_0aff0_15'
p41
((lp42
(lp43
F-1.2931967973709106
aF0.1827753484249115
aF0.02500000037252903
aa(lp44
F-1.423927664756775
aF0.1827753484249115
aF0.02500000037252903
aa(lp45
F-1.423927664756775
aF-0.15722480416297913
aF0.02500000037252903
aa(lp46
F-1.2931967973709106
aF-0.15722480416297913
aF0.02500000037252903
aa(lp47
F-0.0
aF0.0
aF1.0
atp48
sS'planning/base_link_0aff0_5'
p49
((lp50
(lp51
F0.3100000321865082
aF0.5400043725967407
aF0.19999998807907104
aa(lp52
F0.3100000321865082
aF-0.4599956274032593
aF0.19999998807907104
aa(lp53
F0.6100000739097595
aF-0.4599956274032593
aF0.19999998807907104
aa(lp54
F0.6100000739097595
aF0.5400043725967407
aF0.19999998807907104
aa(lp55
F0.0
aF0.0
aF1.0
atp56
sS'planning/base_link_0aff0_4'
p57
((lp58
(lp59
F0.6100000739097595
aF0.5400043725967407
aF0.29999998211860657
aa(lp60
F0.6100000739097595
aF-0.4599956274032593
aF0.29999998211860657
aa(lp61
F0.9100001454353333
aF-0.4599956274032593
aF0.29999998211860657
aa(lp62
F0.9100001454353333
aF0.5400043725967407
aF0.29999998211860657
aa(lp63
F0.0
aF0.0
aF1.0
atp64
sS'planning/base_link_0aff0_7'
p65
((lp66
(lp67
F-2.6531970500946045
aF0.18277543783187866
aF0.10000000149011612
aa(lp68
F-2.6531970500946045
aF-0.15722471475601196
aF0.10000000149011612
aa(lp69
F-2.313196897506714
aF-0.15722471475601196
aF0.10000000149011612
aa(lp70
F-2.313196897506714
aF0.18277542293071747
aF0.10000000149011612
aa(lp71
F0.0
aF0.0
aF1.0
atp72
sS'planning/base_link_0aff0_6'
p73
((lp74
(lp75
F0.01000000536441803
aF0.5400044918060303
aF0.09999997913837433
aa(lp76
F0.01000000536441803
aF-0.4599955677986145
aF0.09999997913837433
aa(lp77
F0.3100000321865082
aF-0.4599956274032593
aF0.09999997913837433
aa(lp78
F0.3100000321865082
aF0.5400043725967407
aF0.09999997913837433
aa(lp79
F0.0
aF0.0
aF1.0
atp80
sS'planning/base_link_0aff0_1'
p81
((lp82
(lp83
F1.5099999904632568
aF-1.0599957704544067
aF0.5999999642372131
aa(lp84
F2.510000228881836
aF-1.0599958896636963
aF0.5999999642372131
aa(lp85
F2.510000228881836
aF0.9400041103363037
aF0.5999999642372131
aa(lp86
F1.5099999904632568
aF0.9400041699409485
aF0.5999999642372131
aa(lp87
F-0.0
aF0.0
aF1.0
atp88
sS'planning/base_link_0aff0_0'
p89
((lp90
(lp91
F-0.7347061634063721
aF0.5102722644805908
aF0.0
aa(lp92
F-0.7347061634063721
aF-0.14972779154777527
aF0.0
aa(lp93
F-0.014706164598464966
aF-0.14972779154777527
aF0.0
aa(lp94
F-0.014706164598464966
aF0.5102722644805908
aF0.0
aa(lp95
F0.0
aF0.0
aF1.0
atp96
sS'planning/base_link_0aff0_3'
p97
((lp98
(lp99
F0.9100000262260437
aF0.5400043725967407
aF0.3999999761581421
aa(lp100
F0.9100000262260437
aF-0.4599956274032593
aF0.3999999761581421
aa(lp101
F1.2100000381469727
aF-0.4599956274032593
aF0.3999999761581421
aa(lp102
F1.2100000381469727
aF0.5400043725967407
aF0.3999999761581421
aa(lp103
F0.0
aF0.0
aF1.0
atp104
sS'planning/base_link_0aff0_2'
p105
((lp106
(lp107
F1.5099999904632568
aF0.540004312992096
aF0.4999999701976776
aa(lp108
F1.2100000381469727
aF0.5400043725967407
aF0.4999999701976776
aa(lp109
F1.2100000381469727
aF-0.4599956274032593
aF0.4999999701976776
aa(lp110
F1.5099999904632568
aF-0.45999574661254883
aF0.4999999701976776
aa(lp111
F0.0
aF0.0
aF1.0
atp112
sS'planning/base_link_0aff0_11'
p113
((lp114
(lp115
F-1.8331965208053589
aF0.18277539312839508
aF0.15000000596046448
aa(lp116
F-1.8331965208053589
aF-0.15722480416297913
aF0.15000000596046448
aa(lp117
F-1.4931966066360474
aF-0.15722480416297913
aF0.15000000596046448
aa(lp118
F-1.4931966066360474
aF0.1827753484249115
aF0.15000000596046448
aa(lp119
F0.0
aF0.0
aF1.0
atp120
sS'planning/base_link_0aff0_17'
p121
((lp122
(lp123
F-1.4900002479553223
aF-0.4599955081939697
aF0.5999999642372131
aa(lp124
F-1.4900002479553223
aF-0.7599955201148987
aF0.5999999642372131
aa(lp125
F1.5099999904632568
aF-0.7599957585334778
aF0.5999999642372131
aa(lp126
F1.5099999904632568
aF-0.45999574661254883
aF0.5999999642372131
aa(lp127
F0.0
aF0.0
aF1.0
atp128
sS'planning/base_link_0aff0_10'
p129
((lp130
(lp131
F-1.6931966543197632
aF0.5327752828598022
aF0.20000000298023224
aa(lp132
F-2.0331969261169434
aF0.5327752828598022
aF0.20000000298023224
aa(lp133
F-2.0331969261169434
aF0.192775160074234
aF0.20000000298023224
aa(lp134
F-1.6931966543197632
aF0.19277511537075043
aF0.20000000298023224
aa(lp135
F-0.0
aF0.0
aF1.0
atp136
sS'planning/base_link_0aff0_16'
p137
((lp138
(lp139
F-1.969883680343628
aF-1.0599955320358276
aF0.5999999642372131
aa(lp140
F-1.4900002479553223
aF-1.0599955320358276
aF0.5999999642372131
aa(lp141
F-1.4900002479553223
aF-0.35663318634033203
aF0.5999999642372131
aa(lp142
F-1.969883680343628
aF-0.35663318634033203
aF0.5999999642372131
aa(lp143
F0.0
aF0.0
aF1.0
atp144
sS'planning/base_link_0aff0_13'
p145
((lp146
(lp147
F-1.2631968259811401
aF-0.15222495794296265
aF0.05000000074505806
aa(lp148
F-0.7531965970993042
aF-0.15222495794296265
aF0.05000000074505806
aa(lp149
F-0.7531965970993042
aF0.5277750492095947
aF0.05000000074505806
aa(lp150
F-1.2631967067718506
aF0.5277751684188843
aF0.05000000074505806
aa(lp151
F0.0
aF-0.0
aF1.0
atp152
sS'planning/base_link_0aff0_19'
p153
((lp154
(lp155
F-2.8620481491088867
aF0.18821090459823608
aF0.0
aa(lp156
F-2.8620481491088867
aF-0.15178906917572021
aF0.0
aa(lp157
F-2.662048101425171
aF-0.15178906917572021
aF0.0
aa(lp158
F-2.662048101425171
aF0.18821090459823608
aF0.0
aa(lp159
F0.0
aF0.0
aF1.0
atp160
s.