(lp0
(lp1
I12
aI12
aI12
aI12
aI12
aI12
aI12
aI12
aI12
aI12
aI12
aI12
aI12
aI12
aI12
aI12
aI12
aI12
aI12
aI12
aa(lp2
F35.0
aF35.0
aF35.0
aF35.0
aF35.0
aF35.0
aF35.0
aF35.0
aF35.0
aF35.0
aF35.0
aF35.0
aF35.0
aF35.0
aF35.0
aF35.0
aF35.0
aF35.0
aF35.0
aF35.0
aa(lp3
F682.648
aF242.721
aF700.375
aF724.367
aF431.399
aF885.6500000000001
aF226.046
aF791.439
aF226.131
aF666.241
aF719.9839999999999
aF703.834
aF866.512
aF183.066
aF708.847
aF216.87
aF237.203
aF711.003
aF229.24
aF424.01
aa(lp4
F62.368
aF61.238
aF62.279999999999994
aF62.552
aF62.306999999999995
aF63.125
aF61.568000000000005
aF61.848
aF62.351
aF61.977000000000004
aF62.726
aF63.307
aF62.896
aF61.464
aF62.706
aaI0
aI5
a(lp5
aF0.007
a.