(lp0
(lp1
I36
aI36
aI36
aI36
aI36
aI36
aI36
aI36
aI36
aI36
aI36
aI36
aI36
aI36
aI36
aI36
aI36
aI36
aI36
aI36
aa(lp2
F71.0
aF84.0
aF84.0
aF78.0
aF76.0
aF77.0
aF80.0
aF80.0
aF77.0
aF84.0
aF84.0
aF78.0
aF84.0
aF86.0
aF87.0
aF83.0
aF75.0
aF86.0
aF79.0
aF87.0
aa(lp3
F383.25399999999996
aF611.177
aF444.544
aF737.577
aF450.518
aF403.462
aF407.337
aF455.745
aF437.992
aF402.391
aF500.46100000000007
aF399.303
aF410.619
aF470.57
aF437.699
aF592.078
aF663.235
aF447.561
aF389.59700000000004
aF489.254
aa(lp4
F114.486
aF769.327
aF220.267
aF222.02100000000002
aF443.85799999999995
aF218.159
aF226.297
aF829.4689999999999
aF1047.361
aF118.70899999999999
aF230.028
aaI2
aI7
a(lp5
I3
aI3
aaF0.007
a.