(lp0
(lp1
I15
aI15
aI15
aI15
aI15
aI15
aI15
aI15
aI15
aI15
aI15
aI15
aI15
aI15
aI15
aI15
aI15
aI15
aI15
aI15
aa(lp2
F24.866666666666667
aF23.866666666666667
aF26.866666666666667
aF27.866666666666667
aF26.866666666666667
aF25.866666666666667
aF27.866666666666667
aF19.866666666666667
aF23.866666666666667
aF26.866666666666667
aF27.866666666666667
aF22.866666666666667
aF25.866666666666667
aF27.866666666666667
aF25.866666666666667
aF27.866666666666667
aF27.866666666666667
aF28.866666666666667
aF26.866666666666667
aF25.866666666666667
aa(lp3
F157.792
aF136.45399999999998
aF205.427
aF405.14
aF215.013
aF160.464
aF231.588
aF66.58699999999999
aF109.60000000000001
aF193.45200000000003
aF203.392
aF91.464
aF106.16799999999999
aF359.086
aF155.175
aF175.857
aF226.69
aF152.036
aF196.101
aF142.63500000000002
aa(lp4
F37.919000000000004
aF38.219
aF37.344
aF38.916
aF75.189
aF41.715
aF38.721
aF36.153999999999996
aF39.249
aF37.852
aF38.806
aF38.760999999999996
aF39.731
aF38.163999999999994
aF39.468
aF38.336
aF39.328
aF42.123
aaI1
aI1
a(lp5
I3
aaF0.001
a.