(lp0
(lp1
I36
aI36
aI36
aI36
aI36
aI36
aI36
aI36
aI36
aI36
aI36
aI36
aI36
aI36
aI36
aI36
aI36
aI36
aI36
aI36
aI36
aI36
aI36
aI36
aI36
aI36
aI36
aI36
aI36
aI36
aI36
aI36
aI36
aI36
aI36
aI36
aI36
aI36
aI36
aI36
aI36
aI36
aI36
aI36
aI36
aI36
aI36
aI36
aI36
aI36
aI36
aI36
aI36
aI36
aI36
aI36
aI36
aI36
aI36
aI36
aI36
aI36
aI36
aI36
aI36
aI36
aa(lp2
F1258.0
aF1258.0
aF1258.0
aF1258.0
aF1258.0
aF1258.0
aF1258.0
aF1258.0
aF1258.0
aF1258.0
aF1258.0
aF1258.0
aF1258.0
aF1258.0
aF1258.0
aF1258.0
aF1258.0
aF1258.0
aF1258.0
aF1258.0
aF1258.0
aF1258.0
aF1258.0
aF1258.0
aF1258.0
aF1258.0
aF1258.0
aF1258.0
aF1258.0
aF1258.0
aF1258.0
aF1258.0
aF1258.0
aF1258.0
aF1258.0
aF1258.0
aF1258.0
aF1258.0
aF1258.0
aF1258.0
aF1258.0
aF1258.0
aF1258.0
aF1258.0
aF1258.0
aF1258.0
aF1258.0
aF1258.0
aF1258.0
aF1258.0
aF1258.0
aF1258.0
aF1258.0
aF1258.0
aF1258.0
aF1258.0
aF1258.0
aF1258.0
aF1258.0
aF1258.0
aF1258.0
aF1258.0
aF1258.0
aF1258.0
aF1258.0
aF1258.0
aa(lp3
F19986.421
aF19977.966
aF20031.727
aF20011.949999999997
aF20021.752
aF20032.646
aF20027.206
aF20018.469
aF20026.305
aF20066.883
aF20010.185
aF20066.698
aF19976.714
aF19966.446
aF20129.871000000003
aF20005.496
aF19983.981
aF19968.791
aF19992.02
aF20007.166999999998
aF19996.161
aF20029.938000000002
aF20034.918999999998
aF20019.933
aF20118.182999999997
aF19978.470999999998
aF19986.478000000003
aF20006.343999999997
aF20026.969
aF19971.008
aF19980.094
aF20003.453
aF20084.699
aF19951.11
aF20060.524
aF19989.832
aF20242.675
aF20191.036
aF19993.75
aF20000.638
aF20018.995
aF20015.47
aF20023.129999999997
aF19887.394
aF20348.677
aF20044.354
aF19974.035
aF19975.985
aF20193.598
aF20292.808
aF19997.494
aF20028.984999999997
aF20275.617000000002
aF19973.048
aF20153.502
aF20006.199
aF21238.773999999998
aF20439.219999999998
aF20402.843
aF20030.901
aF20002.618
aF19981.885
aF20008.237999999998
aF20122.017
aF20047.913
aF20234.472
aa(lp4
aI66
aI0
a(lp5
I2
aI2
aI2
aI2
aI2
aI2
aI2
aI2
aI2
aI2
aI2
aI2
aI2
aI2
aI2
aI2
aI2
aI2
aI2
aI2
aI2
aI2
aI2
aI2
aI2
aI2
aI2
aI2
aI2
aI2
aI2
aI2
aI2
aI2
aI2
aI2
aI2
aI2
aI2
aI2
aI2
aI2
aI2
aI2
aI2
aI2
aI2
aI2
aI2
aI2
aI2
aI2
aI2
aI2
aI2
aI2
aI2
aI2
aI2
aI2
aI2
aI2
aI2
aI2
aI2
aI2
aaF0.05
a.