(lp0
(lp1
I36
aI36
aI36
aI36
aI36
aI36
aI36
aI36
aI36
aI36
aI36
aI36
aI36
aI36
aI36
aI36
aI36
aI36
aI36
aI36
aI36
aI36
aI36
aI36
aI36
aI36
aI36
aI36
aI36
aI36
aI36
aI36
aI36
aI36
aI36
aI36
aI36
aI36
aI36
aI36
aI36
aI36
aI36
aI36
aI36
aI36
aI36
aI36
aI36
aI36
aI36
aI36
aI36
aI36
aI36
aI36
aI36
aI36
aI36
aI36
aI36
aI36
aI36
aI36
aI36
aI36
aI36
aI36
aI36
aI36
aI36
aI36
aI36
aI36
aI36
aI36
aI36
aI36
aI36
aI36
aI36
aI36
aI36
aI36
aI36
aI36
aI36
aI36
aI36
aI36
aI36
aI36
aI36
aI36
aI36
aI36
aI36
aI36
aI36
aI36
aa(lp2
F2.4722222222222223
aF2.388888888888889
aF2.5555555555555554
aF2.3333333333333335
aF2.5555555555555554
aF2.6666666666666665
aF2.388888888888889
aF2.6666666666666665
aF2.4166666666666665
aF2.5833333333333335
aF2.5277777777777777
aF2.611111111111111
aF2.4722222222222223
aF2.5555555555555554
aF2.4166666666666665
aF2.4444444444444446
aF2.4722222222222223
aF2.4444444444444446
aF2.361111111111111
aF2.4166666666666665
aF2.638888888888889
aF2.75
aF2.5
aF2.5555555555555554
aF2.4722222222222223
aF2.4444444444444446
aF2.4444444444444446
aF2.361111111111111
aF2.4444444444444446
aF2.638888888888889
aF2.25
aF2.3333333333333335
aF2.6944444444444446
aF2.5555555555555554
aF2.5833333333333335
aF2.138888888888889
aF2.388888888888889
aF2.5833333333333335
aF2.5833333333333335
aF2.6944444444444446
aF2.4444444444444446
aF2.6666666666666665
aF2.8333333333333335
aF2.361111111111111
aF2.5833333333333335
aF2.4722222222222223
aF2.4444444444444446
aF2.5
aF2.4722222222222223
aF2.5555555555555554
aF2.75
aF2.388888888888889
aF2.5
aF2.5277777777777777
aF2.2222222222222223
aF2.5833333333333335
aF2.638888888888889
aF2.6944444444444446
aF2.4722222222222223
aF2.3333333333333335
aF2.6944444444444446
aF2.5833333333333335
aF2.4722222222222223
aF2.611111111111111
aF2.2222222222222223
aF2.25
aF2.611111111111111
aF2.5555555555555554
aF2.638888888888889
aF2.4166666666666665
aF2.5277777777777777
aF2.5555555555555554
aF2.361111111111111
aF2.5277777777777777
aF2.25
aF2.4722222222222223
aF2.5277777777777777
aF2.0833333333333335
aF2.6944444444444446
aF2.388888888888889
aF2.638888888888889
aF2.3333333333333335
aF2.6944444444444446
aF2.361111111111111
aF2.611111111111111
aF2.5277777777777777
aF2.3333333333333335
aF2.4722222222222223
aF2.2222222222222223
aF2.4166666666666665
aF2.5833333333333335
aF2.5
aF2.6666666666666665
aF2.5555555555555554
aF2.5555555555555554
aF2.6944444444444446
aF2.4444444444444446
aF2.5
aF2.4444444444444446
aF2.75
aa(lp3
F499.064
aF456.67999999999995
aF440.94899999999996
aF379.102
aF545.059
aF510.58400000000006
aF487.03000000000003
aF480.36699999999996
aF484.511
aF519.712
aF478.558
aF520.615
aF435.467
aF452.927
aF453.558
aF628.942
aF493.966
aF431.218
aF436.32599999999996
aF453.262
aF476.345
aF884.273
aF442.587
aF690.864
aF481.74899999999997
aF444.58799999999997
aF425.949
aF436.336
aF449.639
aF438.19399999999996
aF378.21700000000004
aF698.4879999999999
aF474.503
aF1746.086
aF518.1869999999999
aF375.167
aF421.10999999999996
aF427.898
aF491.4
aF779.0
aF445.753
aF492.794
aF482.459
aF395.055
aF531.2900000000001
aF423.925
aF450.048
aF447.08599999999996
aF520.595
aF431.847
aF475.068
aF427.595
aF734.665
aF424.059
aF516.316
aF992.639
aF476.873
aF459.16
aF443.31
aF494.07800000000003
aF475.298
aF450.72499999999997
aF465.479
aF507.55499999999995
aF450.555
aF546.532
aF453.08799999999997
aF497.97200000000004
aF439.561
aF461.81600000000003
aF921.188
aF876.13
aF384.903
aF477.113
aF384.86199999999997
aF450.96799999999996
aF492.29200000000003
aF255.67000000000002
aF490.311
aF470.214
aF460.667
aF383.759
aF491.97200000000004
aF465.474
aF465.063
aF469.19
aF388.81
aF468.901
aF363.411
aF448.348
aF492.41400000000004
aF462.96999999999997
aF526.9300000000001
aF473.697
aF484.996
aF453.531
aF459.517
aF468.912
aF448.552
aF442.416
aa(lp4
F237.879
aF359.464
aF226.232
aF232.708
aF673.0490000000001
aF239.251
aF119.72099999999999
aF2045.502
aF119.532
aF225.765
aF120.757
aF233.947
aF234.041
aF233.327
aF234.457
aF1602.9900000000002
aF973.9359999999999
aF652.3
aF229.696
aF233.863
aF117.96600000000001
aF1119.277
aF229.64800000000002
aF234.827
aF1698.068
aF116.961
aF119.914
aF237.346
aF233.325
aF225.97199999999998
aF224.258
aF230.114
aF230.173
aF223.767
aF236.747
aF838.527
aF479.37199999999996
aF309.625
aF114.38
aF470.714
aF836.7350000000001
aF118.767
aF236.56799999999998
aF430.216
aF237.082
aF237.481
aF116.505
aF235.207
aF381.413
aF252.76799999999997
aF237.116
aF245.96499999999997
aF109.711
aF1469.695
aF224.60000000000002
aF319.61
aF399.859
aF451.38300000000004
aF225.019
aF121.824
aF116.721
aF120.794
aF242.57999999999998
aF334.092
aF347.07599999999996
aF340.499
aaI5
aI29
a(lp5
I3
aI3
aI3
aI3
aI3
aa.