(lp0
(lp1
(lp2
F-0.85
aF0.6749999999999999
aF0.0
aa(lp3
F0.85
aF0.6749999999999999
aF0.0
aa(lp4
F0.85
aF-0.6749999999999999
aF0.0
aa(lp5
F-0.85
aF-0.6749999999999999
aF0.0
aaa(lp6
(lp7
F0.9
aF0.4999999999999999
aF0.0
aa(lp8
F1.2
aF0.4999999999999999
aF0.0
aa(lp9
F1.2
aF0.19999999999999987
aF0.0
aa(lp10
F0.9
aF0.19999999999999987
aF0.0
aaa(lp11
(lp12
F1.25
aF0.4999999999999999
aF0.0
aa(lp13
F1.5499999999999998
aF0.4999999999999999
aF0.0
aa(lp14
F1.5499999999999998
aF0.19999999999999987
aF0.0
aa(lp15
F1.25
aF0.19999999999999987
aF0.0
aaa(lp16
(lp17
F1.6
aF0.4999999999999999
aF0.0
aa(lp18
F2.25
aF0.4999999999999999
aF0.0
aa(lp19
F2.25
aF0.19999999999999987
aF0.0
aa(lp20
F1.6
aF0.19999999999999987
aF0.0
aaa(lp21
(lp22
F0.9
aF0.14999999999999988
aF0.0
aa(lp23
F1.2
aF0.14999999999999988
aF0.0
aa(lp24
F1.2
aF-0.1500000000000001
aF0.0
aa(lp25
F0.9
aF-0.1500000000000001
aF0.0
aaa(lp26
(lp27
F1.25
aF0.14999999999999988
aF0.0
aa(lp28
F1.5499999999999998
aF0.14999999999999988
aF0.0
aa(lp29
F1.5499999999999998
aF-0.1500000000000001
aF0.0
aa(lp30
F1.25
aF-0.1500000000000001
aF0.0
aaa(lp31
(lp32
F1.6
aF0.14999999999999988
aF0.0
aa(lp33
F1.9
aF0.14999999999999988
aF0.0
aa(lp34
F1.9
aF-0.1500000000000001
aF0.0
aa(lp35
F1.6
aF-0.1500000000000001
aF0.0
aaa(lp36
(lp37
F1.9499999999999997
aF0.14999999999999988
aF0.0
aa(lp38
F2.2499999999999996
aF0.14999999999999988
aF0.0
aa(lp39
F2.2499999999999996
aF-0.1500000000000001
aF0.0
aa(lp40
F1.9499999999999997
aF-0.1500000000000001
aF0.0
aaa(lp41
(lp42
F0.9
aF-0.2000000000000001
aF0.0
aa(lp43
F1.2
aF-0.2000000000000001
aF0.0
aa(lp44
F1.2
aF-0.5000000000000001
aF0.0
aa(lp45
F0.9
aF-0.5000000000000001
aF0.0
aaa(lp46
(lp47
F1.6
aF-0.2000000000000001
aF0.0
aa(lp48
F1.9
aF-0.2000000000000001
aF0.0
aa(lp49
F1.9
aF-0.5000000000000001
aF0.0
aa(lp50
F1.6
aF-0.5000000000000001
aF0.0
aaa(lp51
(lp52
F1.9499999999999997
aF-0.2000000000000001
aF0.0
aa(lp53
F2.2499999999999996
aF-0.2000000000000001
aF0.0
aa(lp54
F2.2499999999999996
aF-0.5000000000000001
aF0.0
aa(lp55
F1.9499999999999997
aF-0.5000000000000001
aF0.0
aaa(lp56
(lp57
F2.2750000000000004
aF0.6749999999999999
aF0.0
aa(lp58
F3.9750000000000005
aF0.6749999999999999
aF0.0
aa(lp59
F3.9750000000000005
aF-0.6749999999999999
aF0.0
aa(lp60
F2.2750000000000004
aF-0.6749999999999999
aF0.0
aaa(lp61
(lp62
F4.025
aF0.4
aF0.0
aa(lp63
F4.325000000000001
aF0.4
aF0.0
aa(lp64
F4.325000000000001
aF-0.4
aF0.0
aa(lp65
F4.025
aF-0.4
aF0.0
aaa(lp66
(lp67
F4.325
aF0.4
aF0.1
aa(lp68
F4.625000000000001
aF0.4
aF0.1
aa(lp69
F4.625000000000001
aF-0.4
aF0.1
aa(lp70
F4.325
aF-0.4
aF0.1
aaa(lp71
(lp72
F4.625
aF0.4
aF0.2
aa(lp73
F4.925000000000001
aF0.4
aF0.2
aa(lp74
F4.925000000000001
aF-0.4
aF0.2
aa(lp75
F4.625
aF-0.4
aF0.2
aaa(lp76
(lp77
F4.925
aF0.4
aF0.30000000000000004
aa(lp78
F5.2250000000000005
aF0.4
aF0.30000000000000004
aa(lp79
F5.2250000000000005
aF-0.4
aF0.30000000000000004
aa(lp80
F4.925
aF-0.4
aF0.30000000000000004
aaa(lp81
(lp82
F5.225
aF0.4
aF0.4
aa(lp83
F5.525
aF0.4
aF0.4
aa(lp84
F5.525
aF-0.4
aF0.4
aa(lp85
F5.225
aF-0.4
aF0.4
aaa(lp86
(lp87
F5.5249999999999995
aF0.4
aF0.5
aa(lp88
F5.825
aF0.4
aF0.5
aa(lp89
F5.825
aF-0.4
aF0.5
aa(lp90
F5.5249999999999995
aF-0.4
aF0.5
aaa(lp91
(lp92
F5.824999999999999
aF0.4
aF0.6
aa(lp93
F6.125
aF0.4
aF0.6
aa(lp94
F6.125
aF-0.4
aF0.6
aa(lp95
F5.824999999999999
aF-0.4
aF0.6
aaa(lp96
(lp97
F6.124999999999999
aF0.4
aF0.7
aa(lp98
F6.425
aF0.4
aF0.7
aa(lp99
F6.425
aF-0.4
aF0.7
aa(lp100
F6.124999999999999
aF-0.4
aF0.7
aaa(lp101
(lp102
F6.424999999999999
aF0.6749999999999999
aF0.7
aa(lp103
F8.124999999999998
aF0.6749999999999999
aF0.7
aa(lp104
F8.124999999999998
aF-0.6749999999999999
aF0.7
aa(lp105
F6.424999999999999
aF-0.6749999999999999
aF0.7
aaa(lp106
(lp107
F1.7249999999999979
aF-0.6749999999999999
aF0.7
aa(lp108
F3.424999999999998
aF-0.6749999999999999
aF0.7
aa(lp109
F3.424999999999998
aF-2.025
aF0.7
aa(lp110
F1.7249999999999979
aF-2.025
aF0.7
aaa(lp111
(lp112
F3.424999999999998
aF-1.0499999999999998
aF0.7
aa(lp113
F6.424999999999998
aF-1.0499999999999998
aF0.7
aa(lp114
F6.424999999999998
aF-1.65
aF0.7
aa(lp115
F3.424999999999998
aF-1.65
aF0.7
aaa(lp116
(lp117
F6.424999999999998
aF-0.6749999999999999
aF0.7
aa(lp118
F8.124999999999998
aF-0.6749999999999999
aF0.7
aa(lp119
F8.124999999999998
aF-2.025
aF0.7
aa(lp120
F6.424999999999998
aF-2.025
aF0.7
aaa.