(lp0
(lp1
(lp2
F-1.025
aF1.55
aF0.0
aa(lp3
F1.025
aF1.55
aF0.0
aa(lp4
F1.025
aF-1.55
aF0.0
aa(lp5
F-1.025
aF-1.55
aF0.0
aaa(lp6
(lp7
F1.075
aF1.375
aF-0.08
aa(lp8
F1.3749999999999998
aF1.375
aF0.0
aa(lp9
F1.3749999999999998
aF1.0750000000000002
aF0.0
aa(lp10
F1.075
aF1.0750000000000002
aF-0.08
aaa(lp11
(lp12
F1.4249999999999998
aF1.375
aF0.03
aa(lp13
F1.7249999999999996
aF1.375
aF0.0
aa(lp14
F1.7249999999999996
aF1.0750000000000002
aF0.0
aa(lp15
F1.4249999999999998
aF1.0750000000000002
aF0.03
aaa(lp16
(lp17
F1.775
aF1.375
aF0.0
aa(lp18
F2.0749999999999997
aF1.375
aF0.0
aa(lp19
F2.0749999999999997
aF0.7250000000000001
aF0.0
aa(lp20
F1.775
aF0.7250000000000001
aF0.0
aaa(lp21
(lp22
F2.1249999999999996
aF1.375
aF0.0
aa(lp23
F2.4249999999999994
aF1.375
aF0.0
aa(lp24
F2.4249999999999994
aF0.7250000000000001
aF0.0
aa(lp25
F2.1249999999999996
aF0.7250000000000001
aF0.0
aaa(lp26
(lp27
F1.4249999999999998
aF1.0250000000000001
aF-0.07
aa(lp28
F1.7249999999999996
aF1.0250000000000001
aF0.0
aa(lp29
F1.7249999999999996
aF0.7250000000000001
aF0.0
aa(lp30
F1.4249999999999998
aF0.7250000000000001
aF-0.07
aaa(lp31
(lp32
F2.475
aF1.0250000000000001
aF0.0
aa(lp33
F2.775
aF1.0250000000000001
aF-0.03
aa(lp34
F2.775
aF0.7250000000000001
aF-0.03
aa(lp35
F2.475
aF0.7250000000000001
aF0.0
aaa(lp36
(lp37
F1.4249999999999998
aF0.6750000000000002
aF0.04
aa(lp38
F1.7249999999999996
aF0.6750000000000002
aF0.0
aa(lp39
F1.7249999999999996
aF0.3750000000000001
aF0.0
aa(lp40
F1.4249999999999998
aF0.3750000000000001
aF0.04
aaa(lp41
(lp42
F1.775
aF0.6750000000000002
aF0.0
aa(lp43
F2.0749999999999997
aF0.6750000000000002
aF0.0
aa(lp44
F2.0749999999999997
aF0.025000000000000133
aF0.0
aa(lp45
F1.775
aF0.025000000000000133
aF0.0
aaa(lp46
(lp47
F2.475
aF0.6750000000000002
aF-0.01
aa(lp48
F2.775
aF0.6750000000000002
aF0.0
aa(lp49
F2.775
aF0.3750000000000001
aF0.0
aa(lp50
F2.475
aF0.3750000000000001
aF-0.01
aaa(lp51
(lp52
F1.075
aF0.3250000000000003
aF0.0
aa(lp53
F1.3749999999999998
aF0.3250000000000003
aF0.0
aa(lp54
F1.3749999999999998
aF-0.32499999999999973
aF0.0
aa(lp55
F1.075
aF-0.32499999999999973
aF0.0
aaa(lp56
(lp57
F1.4249999999999998
aF0.3250000000000003
aF0.0
aa(lp58
F1.7249999999999996
aF0.3250000000000003
aF0.0
aa(lp59
F1.7249999999999996
aF-0.32499999999999973
aF0.0
aa(lp60
F1.4249999999999998
aF-0.32499999999999973
aF0.0
aaa(lp61
(lp62
F2.124999999999999
aF0.3250000000000003
aF0.0
aa(lp63
F2.7749999999999995
aF0.3250000000000003
aF0.0
aa(lp64
F2.7749999999999995
aF0.025000000000000272
aF0.0
aa(lp65
F2.124999999999999
aF0.025000000000000272
aF0.0
aaa(lp66
(lp67
F1.775
aF-0.024999999999999828
aF0.0
aa(lp68
F2.0749999999999997
aF-0.024999999999999828
aF0.05
aa(lp69
F2.0749999999999997
aF-0.32499999999999984
aF0.05
aa(lp70
F1.775
aF-0.32499999999999984
aF0.0
aaa(lp71
(lp72
F2.124999999999999
aF-0.024999999999999828
aF0.0
aa(lp73
F2.7749999999999995
aF-0.024999999999999828
aF0.0
aa(lp74
F2.7749999999999995
aF-0.32499999999999984
aF0.0
aa(lp75
F2.124999999999999
aF-0.32499999999999984
aF0.0
aaa(lp76
(lp77
F1.4249999999999998
aF-0.37499999999999994
aF0.0
aa(lp78
F1.7249999999999996
aF-0.37499999999999994
aF0.0
aa(lp79
F1.7249999999999996
aF-1.025
aF0.0
aa(lp80
F1.4249999999999998
aF-1.025
aF0.0
aaa(lp81
(lp82
F1.775
aF-0.3749999999999999
aF-0.02
aa(lp83
F2.0749999999999997
aF-0.3749999999999999
aF0.0
aa(lp84
F2.0749999999999997
aF-0.6749999999999999
aF0.0
aa(lp85
F1.775
aF-0.6749999999999999
aF-0.02
aaa(lp86
(lp87
F2.124999999999999
aF-0.3749999999999999
aF0.0
aa(lp88
F2.7749999999999995
aF-0.3749999999999999
aF0.0
aa(lp89
F2.7749999999999995
aF-0.6749999999999999
aF0.0
aa(lp90
F2.124999999999999
aF-0.6749999999999999
aF0.0
aaa(lp91
(lp92
F1.075
aF-0.7249999999999995
aF0.0
aa(lp93
F1.3749999999999998
aF-0.7249999999999995
aF0.09
aa(lp94
F1.3749999999999998
aF-1.0249999999999995
aF0.09
aa(lp95
F1.075
aF-1.0249999999999995
aF0.0
aaa(lp96
(lp97
F1.775
aF-0.7249999999999996
aF0.0
aa(lp98
F2.0749999999999997
aF-0.7249999999999996
aF0.0
aa(lp99
F2.0749999999999997
aF-1.3749999999999996
aF0.0
aa(lp100
F1.775
aF-1.3749999999999996
aF0.0
aaa(lp101
(lp102
F2.1249999999999996
aF-0.7249999999999995
aF0.0
aa(lp103
F2.4249999999999994
aF-0.7249999999999995
aF-0.01
aa(lp104
F2.4249999999999994
aF-1.0249999999999995
aF-0.01
aa(lp105
F2.1249999999999996
aF-1.0249999999999995
aF0.0
aaa(lp106
(lp107
F2.475
aF-0.7249999999999995
aF-0.05
aa(lp108
F2.775
aF-0.7249999999999995
aF0.0
aa(lp109
F2.775
aF-1.0249999999999995
aF0.0
aa(lp110
F2.475
aF-1.0249999999999995
aF-0.05
aaa(lp111
(lp112
F1.075
aF-1.0750000000000002
aF-0.09
aa(lp113
F1.3749999999999998
aF-1.0750000000000002
aF0.0
aa(lp114
F1.3749999999999998
aF-1.375
aF0.0
aa(lp115
F1.075
aF-1.375
aF-0.09
aaa(lp116
(lp117
F2.1249999999999996
aF-1.0750000000000002
aF0.0
aa(lp118
F2.4249999999999994
aF-1.0750000000000002
aF-0.04
aa(lp119
F2.4249999999999994
aF-1.375
aF-0.04
aa(lp120
F2.1249999999999996
aF-1.375
aF0.0
aaa(lp121
(lp122
F2.475
aF-1.0750000000000002
aF0.0
aa(lp123
F2.775
aF-1.0750000000000002
aF-0.08
aa(lp124
F2.775
aF-1.375
aF-0.08
aa(lp125
F2.475
aF-1.375
aF0.0
aaa(lp126
(lp127
F2.8
aF1.55
aF0.0
aa(lp128
F4.85
aF1.55
aF0.0
aa(lp129
F4.85
aF-1.55
aF0.0
aa(lp130
F2.8
aF-1.55
aF0.0
aaa.