(lp0
(lp1
(lp2
F-0.85
aF1.025
aF0.0
aa(lp3
F0.85
aF1.025
aF0.0
aa(lp4
F0.85
aF-1.025
aF0.0
aa(lp5
F-0.85
aF-1.025
aF0.0
aaa(lp6
(lp7
F0.9
aF0.4
aF0.0
aa(lp8
F1.2
aF0.4
aF0.0
aa(lp9
F1.2
aF-0.4
aF0.0
aa(lp10
F0.9
aF-0.4
aF0.0
aaa(lp11
(lp12
F1.2000000000000002
aF0.4
aF0.1
aa(lp13
F1.5
aF0.4
aF0.1
aa(lp14
F1.5
aF-0.4
aF0.1
aa(lp15
F1.2000000000000002
aF-0.4
aF0.1
aaa(lp16
(lp17
F1.5000000000000002
aF0.4
aF0.2
aa(lp18
F1.8
aF0.4
aF0.2
aa(lp19
F1.8
aF-0.4
aF0.2
aa(lp20
F1.5000000000000002
aF-0.4
aF0.2
aaa(lp21
(lp22
F1.8000000000000003
aF0.4
aF0.30000000000000004
aa(lp23
F2.1
aF0.4
aF0.30000000000000004
aa(lp24
F2.1
aF-0.4
aF0.30000000000000004
aa(lp25
F1.8000000000000003
aF-0.4
aF0.30000000000000004
aaa(lp26
(lp27
F2.1
aF0.4
aF0.4
aa(lp28
F2.4
aF0.4
aF0.4
aa(lp29
F2.4
aF-0.4
aF0.4
aa(lp30
F2.1
aF-0.4
aF0.4
aaa(lp31
(lp32
F2.4
aF0.4
aF0.5
aa(lp33
F2.6999999999999997
aF0.4
aF0.5
aa(lp34
F2.6999999999999997
aF-0.4
aF0.5
aa(lp35
F2.4
aF-0.4
aF0.5
aaa(lp36
(lp37
F2.6999999999999997
aF1.025
aF0.5
aa(lp38
F4.3999999999999995
aF1.025
aF0.5
aa(lp39
F4.3999999999999995
aF-1.025
aF0.5
aa(lp40
F2.6999999999999997
aF-1.025
aF0.5
aaa.