(lp0
(lp1
I15
aI15
aI15
aI15
aI15
aI15
aI15
aI15
aI15
aI15
aI15
aI15
aI15
aI15
aI15
aI15
aI15
aI15
aI15
aI15
aI15
aI15
aI15
aI15
aI15
aI15
aI15
aI15
aI15
aI15
aI15
aI15
aI15
aI15
aI15
aI15
aI15
aI15
aI15
aI15
aI15
aI15
aI15
aI15
aI15
aI15
aI15
aI15
aI15
aI15
aa(lp2
F3.1333333333333333
aF3.1333333333333333
aF3.1333333333333333
aF3.1333333333333333
aF3.1333333333333333
aF3.1333333333333333
aF3.1333333333333333
aF3.1333333333333333
aF3.1333333333333333
aF3.1333333333333333
aF3.1333333333333333
aF3.1333333333333333
aF3.1333333333333333
aF3.1333333333333333
aF3.1333333333333333
aF3.1333333333333333
aF3.1333333333333333
aF3.1333333333333333
aF3.1333333333333333
aF3.1333333333333333
aF3.1333333333333333
aF3.1333333333333333
aF3.1333333333333333
aF3.1333333333333333
aF3.1333333333333333
aF3.1333333333333333
aF3.1333333333333333
aF3.1333333333333333
aF3.1333333333333333
aF3.1333333333333333
aF3.1333333333333333
aF3.1333333333333333
aF3.1333333333333333
aF3.1333333333333333
aF3.1333333333333333
aF3.1333333333333333
aF3.1333333333333333
aF3.1333333333333333
aF3.1333333333333333
aF3.1333333333333333
aF3.1333333333333333
aF3.1333333333333333
aF3.1333333333333333
aF3.1333333333333333
aF3.1333333333333333
aF3.1333333333333333
aF3.1333333333333333
aF3.1333333333333333
aF3.1333333333333333
aF3.1333333333333333
aa(lp3
F137.127
aF131.456
aF134.89200000000002
aF132.427
aF141.324
aF134.251
aF145.054
aF132.642
aF133.219
aF139.018
aF144.42
aF141.647
aF140.678
aF141.275
aF140.401
aF141.57
aF141.38600000000002
aF130.732
aF139.352
aF140.461
aF133.321
aF141.68
aF140.983
aF132.37099999999998
aF139.36
aF140.026
aF142.481
aF159.85399999999998
aF141.576
aF132.345
aF142.31199999999998
aF141.784
aF132.938
aF133.829
aF134.08999999999997
aF137.053
aF140.987
aF144.871
aF140.173
aF139.31199999999998
aF141.227
aF134.768
aF134.101
aF133.11
aF139.62199999999999
aF140.383
aF139.537
aF140.322
aF138.96800000000002
aF138.09099999999998
aa(lp4
F35.966
aF35.384
aF35.47
aF35.443000000000005
aF35.025
aF34.861999999999995
aF35.335
aF35.623000000000005
aF36.391
aF35.452
aF35.86
aF35.604
aF37.595000000000006
aF36.181
aF35.666000000000004
aF35.658
aF35.825
aF35.539
aF36.683
aF35.552
aF35.8
aF36.136
aF35.635
aF35.602000000000004
aF36.012
aF35.948
aF35.652
aF36.793
aF35.482
aF35.714999999999996
aF36.024
aF35.82599999999999
aF36.094
aF35.54
aF36.062
aF35.895
aF36.032000000000004
aF35.465999999999994
aF36.01
aF35.312000000000005
aF35.885
aF36.147
aF36.177
aF35.76
aF36.045
aF35.759
aF36.317
aF35.922999999999995
aF35.053
aF36.067
aa.