(lp0
(lp1
I14
aI14
aI14
aI14
aI14
aI14
aI14
aI14
aI14
aI14
aI14
aI14
aI14
aI14
aI14
aI14
aI14
aI14
aI14
aI14
aI14
aI14
aI14
aI14
aI14
aI14
aI14
aI14
aI14
aI14
aI14
aI14
aI14
aI14
aI14
aI14
aI14
aI14
aI14
aI14
aI14
aI14
aI14
aI14
aI14
aI14
aI14
aI14
aI14
aI14
aI14
aI14
aI14
aI14
aI14
aI14
aI14
aa(lp2
F2.7857142857142856
aF2.7857142857142856
aF2.7857142857142856
aF2.7857142857142856
aF2.7857142857142856
aF2.7857142857142856
aF2.7857142857142856
aF2.7857142857142856
aF2.7857142857142856
aF2.7857142857142856
aF2.7857142857142856
aF2.7857142857142856
aF2.7857142857142856
aF2.7857142857142856
aF2.7857142857142856
aF2.7857142857142856
aF2.7857142857142856
aF2.7857142857142856
aF2.7857142857142856
aF2.7857142857142856
aF2.7857142857142856
aF2.7857142857142856
aF2.7857142857142856
aF2.7857142857142856
aF2.7857142857142856
aF2.7857142857142856
aF2.7857142857142856
aF2.7857142857142856
aF2.7857142857142856
aF2.7857142857142856
aF2.7857142857142856
aF2.7857142857142856
aF2.7857142857142856
aF2.7857142857142856
aF2.7857142857142856
aF2.7857142857142856
aF2.7857142857142856
aF2.7857142857142856
aF2.7857142857142856
aF2.7857142857142856
aF2.7857142857142856
aF2.7857142857142856
aF2.7857142857142856
aF2.7857142857142856
aF2.7857142857142856
aF2.7857142857142856
aF2.7857142857142856
aF2.7857142857142856
aF2.7857142857142856
aF2.7857142857142856
aF2.7857142857142856
aF2.7857142857142856
aF2.7857142857142856
aF2.7857142857142856
aF2.7857142857142856
aF2.7857142857142856
aF2.7857142857142856
aa(lp3
F839.7710000000003
aF545.3760000000001
aF565.6350000000003
aF546.0279999999998
aF538.2360000000012
aF792.4190000000007
aF544.8300000000002
aF542.9089999999999
aF548.1750000000005
aF549.3700000000015
aF805.7660000000002
aF530.2090000000002
aF554.1070000000001
aF546.2969999999991
aF547.834
aF843.4160000000004
aF558.1120000000004
aF539.4749999999995
aF561.2149999999989
aF543.3980000000016
aF830.8559999999998
aF550.4369999999997
aF539.5109999999992
aF542.4810000000004
aF571.0290000000011
aF845.6670000000001
aF523.4509999999997
aF548.2399999999998
aF538.0590000000005
aF542.9310000000012
aF650.3320000000006
aF568.8839999999997
aF505.58100000000115
aF589.0830000000004
aF551.2250000000005
aF829.1620000000001
aF542.0819999999998
aF540.3240000000001
aF540.7630000000001
aF542.1009999999989
aF801.5510000000004
aF542.1430000000003
aF541.3309999999996
aF538.7509999999995
aF542.1460000000006
aF855.2539999999999
aF570.5200000000001
aF536.1769999999985
aF537.4879999999997
aF546.5409999999995
aF810.7440000000001
aF339.669
aF342.90500000000003
aF301.73499999999996
aF314.77
aF320.679
aF325.655
aa(lp4
F342.6119999999999
aF338.2620000000003
aF335.507999999999
aF343.6210000000006
aF339.8629999999994
aF342.8149999999999
aF340.2529999999997
aF345.15099999999956
aF344.005000000001
aF331.53599999999983
aF343.00900000000036
aF345.4139999999999
aF348.3149999999995
aF345.5639999999995
aF340.8299999999986
aF352.4380000000003
aF335.1199999999999
aF337.61600000000055
aF338.19100000000014
aF340.4349999999994
aF339.3500000000005
aF341.9319999999999
aF343.85200000000003
aF340.10099999999886
aF322.4349999999987
aF342.212
aF350.9759999999993
aF344.6809999999996
aF343.33400000000046
aF347.4400000000006
aF343.3470000000005
aF341.71000000000083
aF342.0419999999993
aF345.00300000000016
aF342.6100000000005
aF340.15400000000005
aF342.2900000000002
aF343.2850000000016
aF344.92000000000013
aF342.7070000000008
aF346.49400000000077
aF346.1509999999999
aF344.09899999999993
aF331.53000000000077
aF343.3080000000004
aF341.33600000000007
aF350.7759999999997
aF337.09600000000074
aF340.09400000000056
aF340.91500000000076
aF363.20899999999943
aF115.173
aF122.92500000000001
aF119.552
aF122.679
aF122.782
aF119.17999999999999
aa(lp5
F251.66099999999946
aF254.65699999999993
aF229.06700000000058
aF259.9330000000002
aF251.90299999999866
aF250.34499999999937
aF252.72499999999985
aF252.7090000000012
aF254.08799999999943
aF250.78599999999972
aF253.68800000000036
aF254.29100000000028
aF255.6839999999987
aF254.93400000000042
aF253.89200000000045
aF248.19000000000014
aF250.4249999999999
aF246.8350000000008
aF249.53499999999985
aF249.58499999999972
aF252.6900000000003
aF262.27100000000013
aF251.13699999999994
aF252.3850000000003
aF255.05099999999993
aF254.21799999999985
aF254.63900000000007
aF254.74700000000007
aF258.1229999999994
aF255.5910000000008
aF253.3259999999995
aF260.0899999999999
aF253.11499999999933
aF254.36199999999866
aF252.7449999999991
aF249.61099999999982
aF253.3750000000001
aF252.87900000000008
aF253.90699999999987
aF252.5689999999994
aF254.1120000000001
aF254.289
aF253.37100000000135
aF254.31399999999906
aF255.10899999999913
aF252.5360000000001
aF253.26399999999973
aF251.1449999999993
aF251.31100000000117
aF249.5769999999986
aF254.1979999999997
aF31.801999999999996
aF31.503000000000004
aF30.478
aF30.544999999999998
aF31.727999999999998
aF31.927999999999997
aa(lp6
F278.3600000000002
aF234.98200000000048
aF250.87599999999986
aF252.88499999999914
aF253.33300000000136
aF270.7410000000001
aF249.74599999999913
aF251.6669999999994
aF251.38899999999964
aF250.5399999999991
aF283.9970000000003
aF255.17799999999903
aF257.82099999999986
aF255.6579999999986
aF253.96800000000042
aF275.20400000000046
aF247.41899999999984
aF249.03999999999905
aF250.01600000000047
aF247.3390000000002
aF282.33900000000034
aF254.5799999999998
aF255.11200000000045
aF254.505
aF251.46900000000016
aF281.75099999999986
aF252.6319999999993
aF258.28700000000106
aF256.74000000000063
aF253.97099999999995
aF278.98500000000047
aF240.19700000000023
aF255.76199999999892
aF255.04300000000057
aF253.00800000000123
aF278.7810000000004
aF252.22600000000028
aF253.27500000000038
aF254.36499999999995
aF253.41199999999907
aF280.87200000000047
aF252.154
aF254.0490000000002
aF255.49299999999954
aF255.62799999999976
aF279.0879999999998
aF252.91399999999874
aF253.57099999999912
aF252.21699999999993
aF253.35399999999987
aF253.40399999999974
aF32.169000000000004
aF31.399000000000004
aF31.421999999999997
aF30.900000000000002
aF31.116999999999997
aF32.661
aa(lp7
I0
aI0
aI0
aI0
aI0
aI0
aI0
aI0
aI0
aI0
aI0
aI0
aI0
aI0
aI0
aI0
aI0
aI0
aI0
aI0
aI0
aI0
aI0
aI0
aI0
aI0
aI0
aI0
aI0
aI0
aI0
aI0
aI0
aI0
aI0
aI0
aI0
aI0
aI0
aI0
aI0
aI0
aI0
aI0
aI0
aI0
aI0
aI0
aI0
aI0
aI0
aI0
aI0
aI0
aI0
aI0
aI0
aa.