(lp0
(lp1
I16
aI16
aI16
aI16
aI16
aI16
aI16
aI16
aI16
aI16
aI16
aI16
aI16
aI16
aI16
aI16
aI16
aI16
aI16
aI16
aI16
aI16
aI16
aI16
aI16
aI16
aI16
aI16
aI16
aI16
aI16
aI16
aI16
aI16
aI16
aI16
aI16
aI16
aI16
aI16
aI16
aI16
aI16
aI16
aI16
aI16
aI16
aI16
aI16
aI16
aI16
aa(lp2
F1.875
aF1.875
aF1.875
aF1.875
aF1.875
aF1.875
aF1.875
aF1.875
aF1.875
aF1.875
aF2.0
aF2.0
aF2.0
aF2.0
aF2.0
aF2.0
aF2.0
aF2.0
aF2.0
aF2.0
aF1.6875
aF1.6875
aF1.6875
aF1.6875
aF1.6875
aF1.9375
aF1.9375
aF1.9375
aF1.9375
aF1.9375
aF1.8125
aF1.8125
aF1.8125
aF1.8125
aF1.8125
aF1.75
aF1.75
aF1.75
aF1.75
aF1.75
aF2.0
aF2.0
aF2.0
aF2.0
aF2.0
aF2.0625
aF2.0625
aF2.0625
aF2.0625
aF2.0625
aF1.9375
aa(lp3
F671.8920000000002
aF368.35299999999995
aF367.2840000000006
aF367.9220000000001
aF367.3029999999997
aF623.8860000000002
aF362.75499999999994
aF366.77799999999917
aF368.3169999999993
aF365.0280000000006
aF688.3379999999999
aF393.77900000000034
aF392.6250000000007
aF395.09800000000087
aF394.26699999999926
aF654.9639999999997
aF385.1569999999995
aF393.2479999999998
aF390.06000000000006
aF394.4150000000004
aF603.8850000000004
aF300.3050000000007
aF304.6130000000007
aF300.18499999999904
aF302.66199999999975
aF628.0389999999998
aF385.61099999999993
aF385.5050000000002
aF385.96700000000084
aF388.3739999999989
aF699.599
aF420.5319999999997
aF421.96499999999924
aF426.05499999999984
aF426.45900000000125
aF640.9040000000003
aF336.90599999999995
aF340.00300000000027
aF327.1329999999999
aF332.14700000000084
aF660.2470000000001
aF380.4640000000008
aF384.1790000000005
aF383.1389999999999
aF382.3709999999991
aF657.0539999999996
aF387.24200000000053
aF392.4189999999994
aF394.36599999999976
aF385.4419999999994
aF668.8679999999998
aa(lp4
F336.7519999999997
aF335.3010000000003
aF337.89499999999964
aF336.65700000000066
aF338.3610000000008
aF358.10799999999966
aF358.0859999999992
aF358.00000000000057
aF357.5739999999996
aF358.6470000000013
aF368.31499999999994
aF367.0249999999999
aF362.7970000000005
aF365.9339999999993
aF366.5830000000003
aF366.7740000000004
aF361.55099999999953
aF361.3179999999989
aF365.40899999999965
aF364.73499999999956
aF289.48399999999987
aF264.39900000000006
aF283.9429999999998
aF288.05499999999995
aF289.6649999999994
aF372.34299999999985
aF376.3909999999999
aF388.98099999999937
aF374.1020000000006
aF382.15300000000065
aF332.01500000000016
aF335.09999999999974
aF334.65400000000045
aF338.9400000000009
aF345.3470000000003
aF336.7740000000001
aF335.30499999999995
aF341.4230000000007
aF334.5900000000004
aF342.1769999999995
aF355.83300000000054
aF356.9030000000009
aF357.3640000000005
aF350.50399999999905
aF358.77900000000017
aF365.92
aF373.3740000000001
aF347.67199999999934
aF348.1659999999991
aF367.9559999999995
aF397.6519999999999
aa(lp5
F252.05300000000008
aF252.96099999999998
aF252.47300000000018
aF254.02399999999938
aF251.73299999999978
aF253.50699999999992
aF252.1009999999997
aF251.19100000000037
aF251.45900000000054
aF252.97800000000058
aF254.87700000000046
aF252.24599999999953
aF251.47299999999893
aF253.0089999999987
aF254.27900000000037
aF262.38799999999964
aF253.8860000000005
aF255.50600000000045
aF255.61600000000163
aF255.80900000000105
aF248.9429999999997
aF250.31199999999922
aF250.98399999999899
aF249.8529999999999
aF251.33199999999965
aF248.6890000000006
aF249.1879999999993
aF248.26000000000016
aF248.65200000000164
aF252.7329999999992
aF250.51500000000004
aF253.33900000000042
aF251.6499999999997
aF253.87800000000027
aF255.42899999999946
aF252.16700000000003
aF250.21300000000048
aF251.81399999999954
aF252.20900000000057
aF252.11900000000043
aF252.23800000000017
aF251.55899999999943
aF259.9280000000004
aF252.16700000000003
aF252.85700000000054
aF254.39900000000026
aF255.9459999999998
aF255.48200000000065
aF255.33699999999902
aF256.062
aF254.20100000000014
aa(lp6
F278.3230000000003
aF252.1060000000004
aF253.406
aF252.6440000000001
aF279.3779999999995
aF281.447
aF253.39000000000044
aF252.35699999999994
aF252.81299999999973
aF280.06300000000016
aF281.33999999999924
aF252.90500000000014
aF251.79300000000103
aF251.4219999999998
aF279.7920000000005
aF285.3960000000004
aF261.3850000000007
aF255.85700000000065
aF259.03600000000006
aF282.62399999999843
aF273.2519999999994
aF249.66199999999984
aF250.41399999999925
aF256.2390000000008
aF249.58499999999972
aF273.7500000000006
aF247.50900000000087
aF248.40600000000103
aF250.30900000000145
aF276.55799999999965
aF286.2520000000002
aF252.73500000000038
aF253.35799999999864
aF262.22499999999906
aF263.1809999999995
aF280.3130000000005
aF251.8249999999993
aF252.95599999999928
aF249.4499999999995
aF278.499
aF277.6199999999998
aF253.57699999999994
aF252.79799999999852
aF256.5050000000007
aF279.007
aF279.6619999999992
aF257.30499999999967
aF252.89700000000082
aF254.30300000000017
aF282.34099999999887
aF252.37400000000054
aa(lp7
I0
aI0
aI0
aI0
aI0
aI0
aI0
aI0
aI0
aI0
aI0
aI0
aI0
aI0
aI0
aI0
aI0
aI0
aI0
aI0
aI0
aI0
aI0
aI0
aI0
aI0
aI0
aI0
aI0
aI0
aI0
aI0
aI0
aI0
aI0
aI0
aI0
aI0
aI0
aI0
aI0
aI0
aI0
aI0
aI0
aI0
aI0
aI0
aI0
aI0
aI0
aa.